
Clean_project.elf:     file format elf32-littleriscv
Clean_project.elf
architecture: riscv:rv32, flags 0x00000112:
EXEC_P, HAS_SYMS, D_PAGED
start address 0x00000000

Program Header:
    LOAD off    0x00001000 vaddr 0x00000000 paddr 0x00000000 align 2**12
         filesz 0x00003230 memsz 0x00003230 flags r-x
    LOAD off    0x00005000 vaddr 0x20000000 paddr 0x00003230 align 2**12
         filesz 0x00000008 memsz 0x000004e4 flags rw-
    LOAD off    0x00005800 vaddr 0x20004800 paddr 0x20004800 align 2**12
         filesz 0x00000000 memsz 0x00000800 flags rw-

Sections:
Idx Name          Size      VMA       LMA       File off  Algn
  0 .init         00000038  00000000  00000000  00001000  2**1
                  CONTENTS, ALLOC, LOAD, READONLY, CODE
  1 .vector       00000108  00000038  00000038  00001038  2**1
                  CONTENTS, ALLOC, LOAD, READONLY, CODE
  2 .text         000030f0  00000140  00000140  00001140  2**3
                  CONTENTS, ALLOC, LOAD, READONLY, CODE
  3 .fini         00000000  00003230  00003230  00005008  2**0
                  CONTENTS, ALLOC, LOAD, CODE
  4 .dalign       00000000  20000000  20000000  00005008  2**0
                  CONTENTS
  5 .dlalign      00000000  00003230  00003230  00005008  2**0
                  CONTENTS
  6 .data         00000008  20000000  00003230  00005000  2**2
                  CONTENTS, ALLOC, LOAD, DATA
  7 .bss          000004dc  20000008  00003238  00005008  2**2
                  ALLOC
  8 .stack        00000800  20004800  20004800  00005800  2**0
                  ALLOC
  9 .debug_line   00005561  00000000  00000000  00005008  2**0
                  CONTENTS, READONLY, DEBUGGING
 10 .debug_info   000048c4  00000000  00000000  0000a569  2**0
                  CONTENTS, READONLY, DEBUGGING
 11 .debug_abbrev 00000e14  00000000  00000000  0000ee2d  2**0
                  CONTENTS, READONLY, DEBUGGING
 12 .debug_aranges 00000398  00000000  00000000  0000fc48  2**3
                  CONTENTS, READONLY, DEBUGGING
 13 .debug_str    00001b1c  00000000  00000000  0000ffe0  2**0
                  CONTENTS, READONLY, DEBUGGING
 14 .debug_ranges 00000310  00000000  00000000  00011b00  2**3
                  CONTENTS, READONLY, DEBUGGING
 15 .comment      00000033  00000000  00000000  00011e10  2**0
                  CONTENTS, READONLY
 16 .debug_frame  00000e50  00000000  00000000  00011e44  2**2
                  CONTENTS, READONLY, DEBUGGING
SYMBOL TABLE:
00000000 l    d  .init	00000000 .init
00000038 l    d  .vector	00000000 .vector
00000140 l    d  .text	00000000 .text
00003230 l    d  .fini	00000000 .fini
20000000 l    d  .dalign	00000000 .dalign
00003230 l    d  .dlalign	00000000 .dlalign
20000000 l    d  .data	00000000 .data
20000008 l    d  .bss	00000000 .bss
20004800 l    d  .stack	00000000 .stack
00000000 l    d  .debug_line	00000000 .debug_line
00000000 l    d  .debug_info	00000000 .debug_info
00000000 l    d  .debug_abbrev	00000000 .debug_abbrev
00000000 l    d  .debug_aranges	00000000 .debug_aranges
00000000 l    d  .debug_str	00000000 .debug_str
00000000 l    d  .debug_ranges	00000000 .debug_ranges
00000000 l    d  .comment	00000000 .comment
00000000 l    d  .debug_frame	00000000 .debug_frame
00000000 l    df *ABS*	00000000 ./Core/Startup/startup_ch32v20x_D6.o
00000038 l       .vector	00000000 _vector_base
00000000 l    df *ABS*	00000000 ESP8266_lib.c
00000000 l    df *ABS*	00000000 MQTT.c
00000000 l    df *ABS*	00000000 ModbusRTU.c
00000000 l    df *ABS*	00000000 ModbusRTU_Master.c
00000000 l    df *ABS*	00000000 SoftwareTimer.c
00000000 l    df *ABS*	00000000 ch32v203xx_it.c
00000000 l    df *ABS*	00000000 ch32v20x_RVMSIS.c
0000184a l     F .text	000000ae RVMSIS_GPIO_MODE_Set
000018f8 l     F .text	000000b8 RVMSIS_GPIO_SPEED_Set
000019b0 l     F .text	00000096 RVMSIS_GPIO_CNF_Set
00001a46 l     F .text	00000178 RVMSIS_GPIO_Reg_Set
00000000 l    df *ABS*	00000000 main.c
00000000 l    df *ABS*	00000000 muldf3.c
00000000 l    df *ABS*	00000000 floatsidf.c
00000000 l    df *ABS*	00000000 floatunsidf.c
00000000 l    df *ABS*	00000000 floatunsisf.c
00000000 l    df *ABS*	00000000 truncdfsf2.c
00000000 l    df *ABS*	00000000 libgcc2.c
00000000 l    df *ABS*	00000000 libgcc2.c
0000015e  w      .text	00000000 EXTI2_IRQHandler
20000018 g     O .bss	00000004 ABB_E31_Active_energy_2
00000da2 g     F .text	00000236 ModbusRTU_response_handler
20000034 g     O .bss	00000004 ABB_E31_Frequency
20000040 g     O .bss	00000004 Delay_counter_ms
20000800 g       .data	00000000 __global_pointer$
00002212 g     F .text	00000366 RVMSIS_USART2_Init
00000184  w      .text	00000000 TIM1_CC_IRQHandler
00000142  w      .text	00000000 HardFault_Handler
20000044 g     O .bss	00000004 Timeout_counter_ms
00001758 g     F .text	000000d0 RVMSIS_SysTick_Timer_init
00001184 g     F .text	000000ac SysTick_Handler
00000150  w      .text	00000000 PVD_IRQHandler
00001064 g     F .text	000000d0 ModbusRTU_Master_pool_run
00000140  w      .text	00000000 NMI_Handler
00000160  w      .text	00000000 EXTI3_IRQHandler
2000004c g     O .bss	00000004 ModbusRTU_delay_between_pool
00000768 g     F .text	00000148 UART_MQTT_Send_data_float
00000276 g     F .text	0000008a ESP8266_Indication_run
00000fd8 g     F .text	0000008c ModbusRTU_Master_pool
20000054 g     O .bss	00000004 MQTT_Send_Timer
000008b0 g     F .text	000001aa ModbusRTU_CRC16_Calculate
00000cb4 g     F .text	0000009a ModbusRTU_GetData_U16
20000008 g       .bss	00000000 _sbss
00000800 g       *ABS*	00000000 __stack_size
20000158 g     O .bss	00000040 flags_tx_data_ready
00002578 g     F .text	000000a0 RVMSIS_USART_Transmit
000026ee g     F .text	000000e8 Task1_MQTT_Send
2000002c g     O .bss	00000004 ABB_E31_Active_power
2000000d g     O .bss	00000001 flag_Status_LED_Wifi_MQTT
00002d2e g     F .text	00000070 .hidden __floatsidf
0000015a  w      .text	00000000 EXTI0_IRQHandler
00000190  w      .text	00000000 I2C2_EV_IRQHandler
00000038 g       .init	00000000 _einit
00000342 g     F .text	000001fe UART_MQTT_Check_net
00001d18 g     F .text	0000019e RVMSIS_TIM3_init
00000172  w      .text	00000000 ADC1_2_IRQHandler
00000148  w      .text	00000000 Break_Point_Handler
00000194  w      .text	00000000 SPI1_IRQHandler
20000038 g     O .bss	00000002 ABB_E31_Temperature
00000152  w      .text	00000000 TAMPER_IRQHandler
00002618 g     F .text	000000d6 ModbusRTU_Transmit
00000144  w      .text	00000000 Ecall_M_Mode_Handler
000027d6 g     F .text	0000000e MQTT_Reveieve
0000016a  w      .text	00000000 DMA1_Channel4_IRQHandler
00002d9e g     F .text	00000066 .hidden __floatunsidf
200004a4 g     O .bss	00000040 MQTT_Arr
2000000c g     O .bss	00000001 flag_SW_Timer_Status_LED_Wifi_MQTT
000013f4 g     F .text	000000bc USART3_IRQHandler
00000154  w      .text	00000000 RTC_IRQHandler
200004e4 g       .bss	00000000 _ebss
00000170  w      .text	00000000 DMA1_Channel7_IRQHandler
00000178  w      .text	00000000 CAN1_RX1_IRQHandler
00000300 g     F .text	00000042 ESP8266_Indication_Timer
0000018a  w      .text	00000000 TIM4_IRQHandler
20000052 g     O .bss	00000001 Task1
0000018c  w      .text	00000000 I2C1_EV_IRQHandler
20000024 g     O .bss	00000004 ABB_E31_Voltage
000001a4  w      .text	00000000 USBHD_IRQHandler
200003a0 g     O .bss	00000104 husart3
0000016e  w      .text	00000000 DMA1_Channel6_IRQHandler
0000303c g     F .text	0000006e .hidden __clzsi2
000001a8  w      .text	00000000 UART4_IRQHandler
000014b0 g     F .text	00000072 TIM3_IRQHandler
00000158  w      .text	00000000 RCC_IRQHandler
00001bbe g     F .text	0000015a RVMSIS_GPIO_init
00000182  w      .text	00000000 TIM1_TRG_COM_IRQHandler
00000164  w      .text	00000000 DMA1_Channel1_IRQHandler
00000000 g       .init	00000000 _start
00000620 g     F .text	00000148 UART_MQTT_Send_data_int16_t
0000019e  w      .text	00000000 EXTI15_10_IRQHandler
2000000e g     O .bss	00000001 flag_Network_ok
000001aa  w      .text	00000000 DMA1_Channel8_IRQHandler
20000048 g     O .bss	00000004 ModbusRTU_Timeout
20000000 g       .dalign	00000000 _data_vma
20000050 g     O .bss	00000001 ModbusRTU_Counter_in_queue
0000017c  w      .text	00000000 EXTI9_5_IRQHandler
00001828 g     F .text	00000022 Delay_ms
0000287e g     F .text	000004b0 .hidden __muldf3
00000196  w      .text	00000000 SPI2_IRQHandler
000027e4 g     F .text	0000009a main
00000d4e g     F .text	00000054 ModbusRTU_request_queue
0000156c g     F .text	00000070 RVMSIS_Debug_init
00002ed2 g     F .text	0000016a .hidden __truncdfsf2
2000001c g     O .bss	00000004 ABB_E31_Active_energy_3
0000016c  w      .text	00000000 DMA1_Channel5_IRQHandler
00000162  w      .text	00000000 EXTI4_IRQHandler
00000176  w      .text	00000000 USB_LP_CAN1_RX0_IRQHandler
00001154 g     F .text	00000030 Software_timer_check
20000010 g     O .bss	00000004 ABB_E31_Total_active_energy
00001134 g     F .text	00000020 Software_timer
00000174  w      .text	00000000 USB_HP_CAN1_TX_IRQHandler
20000008 g     O .bss	00000004 SW_Timer_Status_LED_WIFI_MQTT
00003130 g     O .text	00000100 .hidden __clz_tab
00000000 g       .init	00000000 _sinit
2000000f g     O .bss	00000001 NETWORK_Status
2000029c g     O .bss	00000104 husart2
000001a6  w      .text	00000000 USBHDWakeUp_IRQHandler
00000168  w      .text	00000000 DMA1_Channel3_IRQHandler
20000028 g     O .bss	00000004 ABB_E31_Amp
00001522 g     F .text	0000004a TIM1_UP_IRQHandler
00001eb6 g     F .text	0000035c RVMSIS_USART1_Init
0000014e  w      .text	00000000 WWDG_IRQHandler
00000146  w      .text	00000000 Ecall_U_Mode_Handler
00000186  w      .text	00000000 TIM2_IRQHandler
20005000 g       .stack	00000000 _eusrstack
2000003c g     O .bss	00000004 SysTimer_ms
0000014c  w      .text	00000000 SW_Handler
20000020 g     O .bss	00000004 ABB_E31_Active_energy_4
0000017e  w      .text	00000000 TIM1_BRK_IRQHandler
0000015c  w      .text	00000000 EXTI1_IRQHandler
20000008 g       .data	00000000 _edata
20000004 g     O .data	00000001 flag_ModbusRTU_request_on
000001a0  w      .text	00000000 RTCAlarm_IRQHandler
00003230 g       .dlalign	00000000 _data_lma
0000133e g     F .text	000000b6 USART2_IRQHandler
00002e04 g     F .text	000000ce .hidden __floatunsisf
20000030 g     O .bss	00000004 ABB_E31_Power_factor
000015dc g     F .text	0000017c RVMSIS_RCC_SystemClock_144MHz
20000014 g     O .bss	00000004 ABB_E31_Active_energy_1
00000192  w      .text	00000000 I2C2_ER_IRQHandler
00000166  w      .text	00000000 DMA1_Channel2_IRQHandler
00000540 g     F .text	000000e0 UART_MQTT_Checksumm_validation
20000198 g     O .bss	00000104 husart1
0000022e g     F .text	00000048 ESP8266_Reset
000001ac  w      .text	00000000 handle_reset
0000017a  w      .text	00000000 CAN1_SCE_IRQHandler
00000156  w      .text	00000000 FLASH_IRQHandler
20000058 g     O .bss	00000100 ModbusRTU_tx_buffer
00001230 g     F .text	0000010e USART1_IRQHandler
0000018e  w      .text	00000000 I2C1_ER_IRQHandler
20000000 g     O .data	00000004 SW_Timer_Status_LED_WIFI_MQTT_Delay
20000051 g     O .bss	00000001 flag_ModbusRTU_block
00000b3e g     F .text	00000176 ModbusRTU_GetData_U32
00000a5a g     F .text	000000e4 ModbusRTU_Read_Holding_Registers_0x03
000001a2  w      .text	00000000 USBWakeUp_IRQHandler



Disassembly of section .init:

00000000 <_sinit>:
   0:	1ac0006f          	j	1ac <handle_reset>
   4:	00000013          	nop
   8:	00000013          	nop
   c:	00000013          	nop
  10:	00000013          	nop
  14:	00000013          	nop
  18:	00000013          	nop
  1c:	00000013          	nop
  20:	00000013          	nop
  24:	00000013          	nop
  28:	00000013          	nop
  2c:	00000013          	nop
  30:	00000013          	nop
  34:	00100073          	ebreak

Disassembly of section .vector:

00000038 <_vector_base>:
	...
  40:	0140                	addi	s0,sp,132
  42:	0000                	unimp
  44:	0142                	slli	sp,sp,0x10
  46:	0000                	unimp
  48:	0000                	unimp
  4a:	0000                	unimp
  4c:	0144                	addi	s1,sp,132
	...
  56:	0000                	unimp
  58:	0146                	slli	sp,sp,0x11
  5a:	0000                	unimp
  5c:	0148                	addi	a0,sp,132
	...
  66:	0000                	unimp
  68:	1184                	addi	s1,sp,224
  6a:	0000                	unimp
  6c:	0000                	unimp
  6e:	0000                	unimp
  70:	014c                	addi	a1,sp,132
  72:	0000                	unimp
  74:	0000                	unimp
  76:	0000                	unimp
  78:	014e                	slli	sp,sp,0x13
  7a:	0000                	unimp
  7c:	0150                	addi	a2,sp,132
  7e:	0000                	unimp
  80:	0152                	slli	sp,sp,0x14
  82:	0000                	unimp
  84:	0154                	addi	a3,sp,132
  86:	0000                	unimp
  88:	0156                	slli	sp,sp,0x15
  8a:	0000                	unimp
  8c:	0158                	addi	a4,sp,132
  8e:	0000                	unimp
  90:	015a                	slli	sp,sp,0x16
  92:	0000                	unimp
  94:	015c                	addi	a5,sp,132
  96:	0000                	unimp
  98:	015e                	slli	sp,sp,0x17
  9a:	0000                	unimp
  9c:	0160                	addi	s0,sp,140
  9e:	0000                	unimp
  a0:	0162                	slli	sp,sp,0x18
  a2:	0000                	unimp
  a4:	0164                	addi	s1,sp,140
  a6:	0000                	unimp
  a8:	0166                	slli	sp,sp,0x19
  aa:	0000                	unimp
  ac:	0168                	addi	a0,sp,140
  ae:	0000                	unimp
  b0:	016a                	slli	sp,sp,0x1a
  b2:	0000                	unimp
  b4:	016c                	addi	a1,sp,140
  b6:	0000                	unimp
  b8:	016e                	slli	sp,sp,0x1b
  ba:	0000                	unimp
  bc:	0170                	addi	a2,sp,140
  be:	0000                	unimp
  c0:	0172                	slli	sp,sp,0x1c
  c2:	0000                	unimp
  c4:	0174                	addi	a3,sp,140
  c6:	0000                	unimp
  c8:	0176                	slli	sp,sp,0x1d
  ca:	0000                	unimp
  cc:	0178                	addi	a4,sp,140
  ce:	0000                	unimp
  d0:	017a                	slli	sp,sp,0x1e
  d2:	0000                	unimp
  d4:	017c                	addi	a5,sp,140
  d6:	0000                	unimp
  d8:	017e                	slli	sp,sp,0x1f
  da:	0000                	unimp
  dc:	1522                	slli	a0,a0,0x28
  de:	0000                	unimp
  e0:	0182                	c.slli64	gp
  e2:	0000                	unimp
  e4:	0184                	addi	s1,sp,192
  e6:	0000                	unimp
  e8:	0186                	slli	gp,gp,0x1
  ea:	0000                	unimp
  ec:	14b0                	addi	a2,sp,616
  ee:	0000                	unimp
  f0:	018a                	slli	gp,gp,0x2
  f2:	0000                	unimp
  f4:	018c                	addi	a1,sp,192
  f6:	0000                	unimp
  f8:	018e                	slli	gp,gp,0x3
  fa:	0000                	unimp
  fc:	0190                	addi	a2,sp,192
  fe:	0000                	unimp
 100:	0192                	slli	gp,gp,0x4
 102:	0000                	unimp
 104:	0194                	addi	a3,sp,192
 106:	0000                	unimp
 108:	0196                	slli	gp,gp,0x5
 10a:	0000                	unimp
 10c:	1230                	addi	a2,sp,296
 10e:	0000                	unimp
 110:	133e                	slli	t1,t1,0x2f
 112:	0000                	unimp
 114:	13f4                	addi	a3,sp,492
 116:	0000                	unimp
 118:	019e                	slli	gp,gp,0x7
 11a:	0000                	unimp
 11c:	01a0                	addi	s0,sp,200
 11e:	0000                	unimp
 120:	01a2                	slli	gp,gp,0x8
 122:	0000                	unimp
 124:	01a4                	addi	s1,sp,200
 126:	0000                	unimp
 128:	01a6                	slli	gp,gp,0x9
 12a:	0000                	unimp
 12c:	01a8                	addi	a0,sp,200
 12e:	0000                	unimp
 130:	01aa                	slli	gp,gp,0xa
	...

Disassembly of section .text:

00000140 <NMI_Handler>:
     140:	a001                	j	140 <NMI_Handler>

00000142 <HardFault_Handler>:
     142:	a001                	j	142 <HardFault_Handler>

00000144 <Ecall_M_Mode_Handler>:
     144:	a001                	j	144 <Ecall_M_Mode_Handler>

00000146 <Ecall_U_Mode_Handler>:
     146:	a001                	j	146 <Ecall_U_Mode_Handler>

00000148 <Break_Point_Handler>:
     148:	a001                	j	148 <Break_Point_Handler>
     14a:	a001                	j	14a <Break_Point_Handler+0x2>

0000014c <SW_Handler>:
     14c:	a001                	j	14c <SW_Handler>

0000014e <WWDG_IRQHandler>:
     14e:	a001                	j	14e <WWDG_IRQHandler>

00000150 <PVD_IRQHandler>:
     150:	a001                	j	150 <PVD_IRQHandler>

00000152 <TAMPER_IRQHandler>:
     152:	a001                	j	152 <TAMPER_IRQHandler>

00000154 <RTC_IRQHandler>:
     154:	a001                	j	154 <RTC_IRQHandler>

00000156 <FLASH_IRQHandler>:
     156:	a001                	j	156 <FLASH_IRQHandler>

00000158 <RCC_IRQHandler>:
     158:	a001                	j	158 <RCC_IRQHandler>

0000015a <EXTI0_IRQHandler>:
     15a:	a001                	j	15a <EXTI0_IRQHandler>

0000015c <EXTI1_IRQHandler>:
     15c:	a001                	j	15c <EXTI1_IRQHandler>

0000015e <EXTI2_IRQHandler>:
     15e:	a001                	j	15e <EXTI2_IRQHandler>

00000160 <EXTI3_IRQHandler>:
     160:	a001                	j	160 <EXTI3_IRQHandler>

00000162 <EXTI4_IRQHandler>:
     162:	a001                	j	162 <EXTI4_IRQHandler>

00000164 <DMA1_Channel1_IRQHandler>:
     164:	a001                	j	164 <DMA1_Channel1_IRQHandler>

00000166 <DMA1_Channel2_IRQHandler>:
     166:	a001                	j	166 <DMA1_Channel2_IRQHandler>

00000168 <DMA1_Channel3_IRQHandler>:
     168:	a001                	j	168 <DMA1_Channel3_IRQHandler>

0000016a <DMA1_Channel4_IRQHandler>:
     16a:	a001                	j	16a <DMA1_Channel4_IRQHandler>

0000016c <DMA1_Channel5_IRQHandler>:
     16c:	a001                	j	16c <DMA1_Channel5_IRQHandler>

0000016e <DMA1_Channel6_IRQHandler>:
     16e:	a001                	j	16e <DMA1_Channel6_IRQHandler>

00000170 <DMA1_Channel7_IRQHandler>:
     170:	a001                	j	170 <DMA1_Channel7_IRQHandler>

00000172 <ADC1_2_IRQHandler>:
     172:	a001                	j	172 <ADC1_2_IRQHandler>

00000174 <USB_HP_CAN1_TX_IRQHandler>:
     174:	a001                	j	174 <USB_HP_CAN1_TX_IRQHandler>

00000176 <USB_LP_CAN1_RX0_IRQHandler>:
     176:	a001                	j	176 <USB_LP_CAN1_RX0_IRQHandler>

00000178 <CAN1_RX1_IRQHandler>:
     178:	a001                	j	178 <CAN1_RX1_IRQHandler>

0000017a <CAN1_SCE_IRQHandler>:
     17a:	a001                	j	17a <CAN1_SCE_IRQHandler>

0000017c <EXTI9_5_IRQHandler>:
     17c:	a001                	j	17c <EXTI9_5_IRQHandler>

0000017e <TIM1_BRK_IRQHandler>:
     17e:	a001                	j	17e <TIM1_BRK_IRQHandler>
     180:	a001                	j	180 <TIM1_BRK_IRQHandler+0x2>

00000182 <TIM1_TRG_COM_IRQHandler>:
     182:	a001                	j	182 <TIM1_TRG_COM_IRQHandler>

00000184 <TIM1_CC_IRQHandler>:
     184:	a001                	j	184 <TIM1_CC_IRQHandler>

00000186 <TIM2_IRQHandler>:
     186:	a001                	j	186 <TIM2_IRQHandler>
     188:	a001                	j	188 <TIM2_IRQHandler+0x2>

0000018a <TIM4_IRQHandler>:
     18a:	a001                	j	18a <TIM4_IRQHandler>

0000018c <I2C1_EV_IRQHandler>:
     18c:	a001                	j	18c <I2C1_EV_IRQHandler>

0000018e <I2C1_ER_IRQHandler>:
     18e:	a001                	j	18e <I2C1_ER_IRQHandler>

00000190 <I2C2_EV_IRQHandler>:
     190:	a001                	j	190 <I2C2_EV_IRQHandler>

00000192 <I2C2_ER_IRQHandler>:
     192:	a001                	j	192 <I2C2_ER_IRQHandler>

00000194 <SPI1_IRQHandler>:
     194:	a001                	j	194 <SPI1_IRQHandler>

00000196 <SPI2_IRQHandler>:
     196:	a001                	j	196 <SPI2_IRQHandler>
     198:	a001                	j	198 <SPI2_IRQHandler+0x2>
     19a:	a001                	j	19a <SPI2_IRQHandler+0x4>
     19c:	a001                	j	19c <SPI2_IRQHandler+0x6>

0000019e <EXTI15_10_IRQHandler>:
     19e:	a001                	j	19e <EXTI15_10_IRQHandler>

000001a0 <RTCAlarm_IRQHandler>:
     1a0:	a001                	j	1a0 <RTCAlarm_IRQHandler>

000001a2 <USBWakeUp_IRQHandler>:
     1a2:	a001                	j	1a2 <USBWakeUp_IRQHandler>

000001a4 <USBHD_IRQHandler>:
     1a4:	a001                	j	1a4 <USBHD_IRQHandler>

000001a6 <USBHDWakeUp_IRQHandler>:
     1a6:	a001                	j	1a6 <USBHDWakeUp_IRQHandler>

000001a8 <UART4_IRQHandler>:
     1a8:	a001                	j	1a8 <UART4_IRQHandler>

000001aa <DMA1_Channel8_IRQHandler>:
     1aa:	a001                	j	1aa <DMA1_Channel8_IRQHandler>

000001ac <handle_reset>:
     1ac:	20000197          	auipc	gp,0x20000
     1b0:	65418193          	addi	gp,gp,1620 # 20000800 <__global_pointer$>
     1b4:	20005117          	auipc	sp,0x20005
     1b8:	e4c10113          	addi	sp,sp,-436 # 20005000 <_eusrstack>
     1bc:	00003517          	auipc	a0,0x3
     1c0:	07450513          	addi	a0,a0,116 # 3230 <_data_lma>
     1c4:	20000597          	auipc	a1,0x20000
     1c8:	e3c58593          	addi	a1,a1,-452 # 20000000 <_data_vma>
     1cc:	80818613          	addi	a2,gp,-2040 # 20000008 <_edata>
     1d0:	00c5fa63          	bgeu	a1,a2,1e4 <handle_reset+0x38>
     1d4:	00052283          	lw	t0,0(a0)
     1d8:	0055a023          	sw	t0,0(a1)
     1dc:	0511                	addi	a0,a0,4
     1de:	0591                	addi	a1,a1,4
     1e0:	fec5eae3          	bltu	a1,a2,1d4 <handle_reset+0x28>
     1e4:	80818513          	addi	a0,gp,-2040 # 20000008 <_edata>
     1e8:	ce418593          	addi	a1,gp,-796 # 200004e4 <_ebss>
     1ec:	00b57763          	bgeu	a0,a1,1fa <handle_reset+0x4e>
     1f0:	00052023          	sw	zero,0(a0)
     1f4:	0511                	addi	a0,a0,4
     1f6:	feb56de3          	bltu	a0,a1,1f0 <handle_reset+0x44>
     1fa:	42fd                	li	t0,31
     1fc:	bc029073          	csrw	0xbc0,t0
     200:	428d                	li	t0,3
     202:	80429073          	csrw	0x804,t0
     206:	08800293          	li	t0,136
     20a:	3002a073          	csrs	mstatus,t0
     20e:	00000297          	auipc	t0,0x0
     212:	e2a28293          	addi	t0,t0,-470 # 38 <_einit>
     216:	0032e293          	ori	t0,t0,3
     21a:	30529073          	csrw	mtvec,t0
     21e:	00002297          	auipc	t0,0x2
     222:	5c628293          	addi	t0,t0,1478 # 27e4 <main>
     226:	34129073          	csrw	mepc,t0
     22a:	30200073          	mret

0000022e <ESP8266_Reset>:
     22e:	1101                	addi	sp,sp,-32
     230:	ce06                	sw	ra,28(sp)
     232:	cc22                	sw	s0,24(sp)
     234:	1000                	addi	s0,sp,32
     236:	87aa                	mv	a5,a0
     238:	fef407a3          	sb	a5,-17(s0)
     23c:	400117b7          	lui	a5,0x40011
     240:	80078793          	addi	a5,a5,-2048 # 40010800 <_eusrstack+0x2000b800>
     244:	10000713          	li	a4,256
     248:	cb98                	sw	a4,16(a5)
     24a:	fef44783          	lbu	a5,-17(s0)
     24e:	853e                	mv	a0,a5
     250:	5d8010ef          	jal	ra,1828 <Delay_ms>
     254:	400117b7          	lui	a5,0x40011
     258:	80078793          	addi	a5,a5,-2048 # 40010800 <_eusrstack+0x2000b800>
     25c:	01000737          	lui	a4,0x1000
     260:	cb98                	sw	a4,16(a5)
     262:	fef44783          	lbu	a5,-17(s0)
     266:	853e                	mv	a0,a5
     268:	5c0010ef          	jal	ra,1828 <Delay_ms>
     26c:	0001                	nop
     26e:	40f2                	lw	ra,28(sp)
     270:	4462                	lw	s0,24(sp)
     272:	6105                	addi	sp,sp,32
     274:	8082                	ret

00000276 <ESP8266_Indication_run>:
     276:	1141                	addi	sp,sp,-16
     278:	c606                	sw	ra,12(sp)
     27a:	c422                	sw	s0,8(sp)
     27c:	0800                	addi	s0,sp,16
     27e:	80e1c783          	lbu	a5,-2034(gp) # 2000000e <flag_Network_ok>
     282:	0017c793          	xori	a5,a5,1
     286:	0ff7f793          	andi	a5,a5,255
     28a:	c7b5                	beqz	a5,2f6 <ESP8266_Indication_run+0x80>
     28c:	80c1c783          	lbu	a5,-2036(gp) # 2000000c <flag_SW_Timer_Status_LED_Wifi_MQTT>
     290:	0017c793          	xori	a5,a5,1
     294:	0ff7f793          	andi	a5,a5,255
     298:	cfb9                	beqz	a5,2f6 <ESP8266_Indication_run+0x80>
     29a:	80d1c783          	lbu	a5,-2035(gp) # 2000000d <flag_Status_LED_Wifi_MQTT>
     29e:	00f037b3          	snez	a5,a5
     2a2:	0ff7f793          	andi	a5,a5,255
     2a6:	0017c793          	xori	a5,a5,1
     2aa:	0ff7f793          	andi	a5,a5,255
     2ae:	8b85                	andi	a5,a5,1
     2b0:	0ff7f713          	andi	a4,a5,255
     2b4:	80e186a3          	sb	a4,-2035(gp) # 2000000d <flag_Status_LED_Wifi_MQTT>
     2b8:	80d1c783          	lbu	a5,-2035(gp) # 2000000d <flag_Status_LED_Wifi_MQTT>
     2bc:	cb81                	beqz	a5,2cc <ESP8266_Indication_run+0x56>
     2be:	400117b7          	lui	a5,0x40011
     2c2:	c0078793          	addi	a5,a5,-1024 # 40010c00 <_eusrstack+0x2000bc00>
     2c6:	6721                	lui	a4,0x8
     2c8:	cb98                	sw	a4,16(a5)
     2ca:	a801                	j	2da <ESP8266_Indication_run+0x64>
     2cc:	400117b7          	lui	a5,0x40011
     2d0:	c0078793          	addi	a5,a5,-1024 # 40010c00 <_eusrstack+0x2000bc00>
     2d4:	80000737          	lui	a4,0x80000
     2d8:	cb98                	sw	a4,16(a5)
     2da:	200007b7          	lui	a5,0x20000
     2de:	0007a783          	lw	a5,0(a5) # 20000000 <_data_vma>
     2e2:	85be                	mv	a1,a5
     2e4:	200007b7          	lui	a5,0x20000
     2e8:	00878513          	addi	a0,a5,8 # 20000008 <_edata>
     2ec:	649000ef          	jal	ra,1134 <Software_timer>
     2f0:	4705                	li	a4,1
     2f2:	80e18623          	sb	a4,-2036(gp) # 2000000c <flag_SW_Timer_Status_LED_Wifi_MQTT>
     2f6:	0001                	nop
     2f8:	40b2                	lw	ra,12(sp)
     2fa:	4422                	lw	s0,8(sp)
     2fc:	0141                	addi	sp,sp,16
     2fe:	8082                	ret

00000300 <ESP8266_Indication_Timer>:
     300:	1141                	addi	sp,sp,-16
     302:	c606                	sw	ra,12(sp)
     304:	c422                	sw	s0,8(sp)
     306:	0800                	addi	s0,sp,16
     308:	80e1c783          	lbu	a5,-2034(gp) # 2000000e <flag_Network_ok>
     30c:	0017c793          	xori	a5,a5,1
     310:	0ff7f793          	andi	a5,a5,255
     314:	c395                	beqz	a5,338 <ESP8266_Indication_Timer+0x38>
     316:	80c1c783          	lbu	a5,-2036(gp) # 2000000c <flag_SW_Timer_Status_LED_Wifi_MQTT>
     31a:	cf99                	beqz	a5,338 <ESP8266_Indication_Timer+0x38>
     31c:	200007b7          	lui	a5,0x20000
     320:	00878513          	addi	a0,a5,8 # 20000008 <_edata>
     324:	631000ef          	jal	ra,1154 <Software_timer_check>
     328:	87aa                	mv	a5,a0
     32a:	0017c793          	xori	a5,a5,1
     32e:	0ff7f793          	andi	a5,a5,255
     332:	c399                	beqz	a5,338 <ESP8266_Indication_Timer+0x38>
     334:	80018623          	sb	zero,-2036(gp) # 2000000c <flag_SW_Timer_Status_LED_Wifi_MQTT>
     338:	0001                	nop
     33a:	40b2                	lw	ra,12(sp)
     33c:	4422                	lw	s0,8(sp)
     33e:	0141                	addi	sp,sp,16
     340:	8082                	ret

00000342 <UART_MQTT_Check_net>:
     342:	1141                	addi	sp,sp,-16
     344:	c606                	sw	ra,12(sp)
     346:	c422                	sw	s0,8(sp)
     348:	0800                	addi	s0,sp,16
     34a:	99818513          	addi	a0,gp,-1640 # 20000198 <husart1>
     34e:	2acd                	jal	540 <UART_MQTT_Checksumm_validation>
     350:	87aa                	mv	a5,a0
     352:	1e078263          	beqz	a5,536 <UART_MQTT_Check_net+0x1f4>
     356:	9981c703          	lbu	a4,-1640(gp) # 20000198 <husart1>
     35a:	0ff00793          	li	a5,255
     35e:	06f71763          	bne	a4,a5,3cc <UART_MQTT_Check_net+0x8a>
     362:	99818793          	addi	a5,gp,-1640 # 20000198 <husart1>
     366:	3398                	lbu	a4,1(a5)
     368:	0ff00793          	li	a5,255
     36c:	06f71063          	bne	a4,a5,3cc <UART_MQTT_Check_net+0x8a>
     370:	99818793          	addi	a5,gp,-1640 # 20000198 <husart1>
     374:	23b8                	lbu	a4,2(a5)
     376:	0ff00793          	li	a5,255
     37a:	04f71963          	bne	a4,a5,3cc <UART_MQTT_Check_net+0x8a>
     37e:	99818793          	addi	a5,gp,-1640 # 20000198 <husart1>
     382:	33b8                	lbu	a4,3(a5)
     384:	0bb00793          	li	a5,187
     388:	04f71263          	bne	a4,a5,3cc <UART_MQTT_Check_net+0x8a>
     38c:	99818793          	addi	a5,gp,-1640 # 20000198 <husart1>
     390:	23d8                	lbu	a4,4(a5)
     392:	0bb00793          	li	a5,187
     396:	02f71b63          	bne	a4,a5,3cc <UART_MQTT_Check_net+0x8a>
     39a:	99818793          	addi	a5,gp,-1640 # 20000198 <husart1>
     39e:	33d8                	lbu	a4,5(a5)
     3a0:	0bb00793          	li	a5,187
     3a4:	02f71463          	bne	a4,a5,3cc <UART_MQTT_Check_net+0x8a>
     3a8:	99818793          	addi	a5,gp,-1640 # 20000198 <husart1>
     3ac:	23f8                	lbu	a4,6(a5)
     3ae:	0bb00793          	li	a5,187
     3b2:	00f71d63          	bne	a4,a5,3cc <UART_MQTT_Check_net+0x8a>
     3b6:	800187a3          	sb	zero,-2033(gp) # 2000000f <NETWORK_Status>
     3ba:	200007b7          	lui	a5,0x20000
     3be:	3e800713          	li	a4,1000
     3c2:	00e7a023          	sw	a4,0(a5) # 20000000 <_data_vma>
     3c6:	80018723          	sb	zero,-2034(gp) # 2000000e <flag_Network_ok>
     3ca:	a2b5                	j	536 <UART_MQTT_Check_net+0x1f4>
     3cc:	9981c703          	lbu	a4,-1640(gp) # 20000198 <husart1>
     3d0:	0ff00793          	li	a5,255
     3d4:	06f71863          	bne	a4,a5,444 <UART_MQTT_Check_net+0x102>
     3d8:	99818793          	addi	a5,gp,-1640 # 20000198 <husart1>
     3dc:	3398                	lbu	a4,1(a5)
     3de:	0ff00793          	li	a5,255
     3e2:	06f71163          	bne	a4,a5,444 <UART_MQTT_Check_net+0x102>
     3e6:	99818793          	addi	a5,gp,-1640 # 20000198 <husart1>
     3ea:	23b8                	lbu	a4,2(a5)
     3ec:	0ff00793          	li	a5,255
     3f0:	04f71a63          	bne	a4,a5,444 <UART_MQTT_Check_net+0x102>
     3f4:	99818793          	addi	a5,gp,-1640 # 20000198 <husart1>
     3f8:	33b8                	lbu	a4,3(a5)
     3fa:	0aa00793          	li	a5,170
     3fe:	04f71363          	bne	a4,a5,444 <UART_MQTT_Check_net+0x102>
     402:	99818793          	addi	a5,gp,-1640 # 20000198 <husart1>
     406:	23d8                	lbu	a4,4(a5)
     408:	0aa00793          	li	a5,170
     40c:	02f71c63          	bne	a4,a5,444 <UART_MQTT_Check_net+0x102>
     410:	99818793          	addi	a5,gp,-1640 # 20000198 <husart1>
     414:	33d8                	lbu	a4,5(a5)
     416:	0aa00793          	li	a5,170
     41a:	02f71563          	bne	a4,a5,444 <UART_MQTT_Check_net+0x102>
     41e:	99818793          	addi	a5,gp,-1640 # 20000198 <husart1>
     422:	23f8                	lbu	a4,6(a5)
     424:	0aa00793          	li	a5,170
     428:	00f71e63          	bne	a4,a5,444 <UART_MQTT_Check_net+0x102>
     42c:	4705                	li	a4,1
     42e:	80e187a3          	sb	a4,-2033(gp) # 2000000f <NETWORK_Status>
     432:	200007b7          	lui	a5,0x20000
     436:	1f400713          	li	a4,500
     43a:	00e7a023          	sw	a4,0(a5) # 20000000 <_data_vma>
     43e:	80018723          	sb	zero,-2034(gp) # 2000000e <flag_Network_ok>
     442:	a8d5                	j	536 <UART_MQTT_Check_net+0x1f4>
     444:	9981c703          	lbu	a4,-1640(gp) # 20000198 <husart1>
     448:	0ff00793          	li	a5,255
     44c:	06f71863          	bne	a4,a5,4bc <UART_MQTT_Check_net+0x17a>
     450:	99818793          	addi	a5,gp,-1640 # 20000198 <husart1>
     454:	3398                	lbu	a4,1(a5)
     456:	0ff00793          	li	a5,255
     45a:	06f71163          	bne	a4,a5,4bc <UART_MQTT_Check_net+0x17a>
     45e:	99818793          	addi	a5,gp,-1640 # 20000198 <husart1>
     462:	23b8                	lbu	a4,2(a5)
     464:	0ff00793          	li	a5,255
     468:	04f71a63          	bne	a4,a5,4bc <UART_MQTT_Check_net+0x17a>
     46c:	99818793          	addi	a5,gp,-1640 # 20000198 <husart1>
     470:	33b8                	lbu	a4,3(a5)
     472:	0dd00793          	li	a5,221
     476:	04f71363          	bne	a4,a5,4bc <UART_MQTT_Check_net+0x17a>
     47a:	99818793          	addi	a5,gp,-1640 # 20000198 <husart1>
     47e:	23d8                	lbu	a4,4(a5)
     480:	0dd00793          	li	a5,221
     484:	02f71c63          	bne	a4,a5,4bc <UART_MQTT_Check_net+0x17a>
     488:	99818793          	addi	a5,gp,-1640 # 20000198 <husart1>
     48c:	33d8                	lbu	a4,5(a5)
     48e:	0dd00793          	li	a5,221
     492:	02f71563          	bne	a4,a5,4bc <UART_MQTT_Check_net+0x17a>
     496:	99818793          	addi	a5,gp,-1640 # 20000198 <husart1>
     49a:	23f8                	lbu	a4,6(a5)
     49c:	0dd00793          	li	a5,221
     4a0:	00f71e63          	bne	a4,a5,4bc <UART_MQTT_Check_net+0x17a>
     4a4:	4709                	li	a4,2
     4a6:	80e187a3          	sb	a4,-2033(gp) # 2000000f <NETWORK_Status>
     4aa:	200007b7          	lui	a5,0x20000
     4ae:	06400713          	li	a4,100
     4b2:	00e7a023          	sw	a4,0(a5) # 20000000 <_data_vma>
     4b6:	80018723          	sb	zero,-2034(gp) # 2000000e <flag_Network_ok>
     4ba:	a8b5                	j	536 <UART_MQTT_Check_net+0x1f4>
     4bc:	9981c703          	lbu	a4,-1640(gp) # 20000198 <husart1>
     4c0:	0ff00793          	li	a5,255
     4c4:	06f71963          	bne	a4,a5,536 <UART_MQTT_Check_net+0x1f4>
     4c8:	99818793          	addi	a5,gp,-1640 # 20000198 <husart1>
     4cc:	3398                	lbu	a4,1(a5)
     4ce:	0ff00793          	li	a5,255
     4d2:	06f71263          	bne	a4,a5,536 <UART_MQTT_Check_net+0x1f4>
     4d6:	99818793          	addi	a5,gp,-1640 # 20000198 <husart1>
     4da:	23b8                	lbu	a4,2(a5)
     4dc:	0ff00793          	li	a5,255
     4e0:	04f71b63          	bne	a4,a5,536 <UART_MQTT_Check_net+0x1f4>
     4e4:	99818793          	addi	a5,gp,-1640 # 20000198 <husart1>
     4e8:	33b8                	lbu	a4,3(a5)
     4ea:	0cc00793          	li	a5,204
     4ee:	04f71463          	bne	a4,a5,536 <UART_MQTT_Check_net+0x1f4>
     4f2:	99818793          	addi	a5,gp,-1640 # 20000198 <husart1>
     4f6:	23d8                	lbu	a4,4(a5)
     4f8:	0cc00793          	li	a5,204
     4fc:	02f71d63          	bne	a4,a5,536 <UART_MQTT_Check_net+0x1f4>
     500:	99818793          	addi	a5,gp,-1640 # 20000198 <husart1>
     504:	33d8                	lbu	a4,5(a5)
     506:	0cc00793          	li	a5,204
     50a:	02f71663          	bne	a4,a5,536 <UART_MQTT_Check_net+0x1f4>
     50e:	99818793          	addi	a5,gp,-1640 # 20000198 <husart1>
     512:	23f8                	lbu	a4,6(a5)
     514:	0cc00793          	li	a5,204
     518:	00f71f63          	bne	a4,a5,536 <UART_MQTT_Check_net+0x1f4>
     51c:	470d                	li	a4,3
     51e:	80e187a3          	sb	a4,-2033(gp) # 2000000f <NETWORK_Status>
     522:	4705                	li	a4,1
     524:	80e18723          	sb	a4,-2034(gp) # 2000000e <flag_Network_ok>
     528:	400117b7          	lui	a5,0x40011
     52c:	c0078793          	addi	a5,a5,-1024 # 40010c00 <_eusrstack+0x2000bc00>
     530:	6721                	lui	a4,0x8
     532:	cb98                	sw	a4,16(a5)
     534:	a009                	j	536 <UART_MQTT_Check_net+0x1f4>
     536:	0001                	nop
     538:	40b2                	lw	ra,12(sp)
     53a:	4422                	lw	s0,8(sp)
     53c:	0141                	addi	sp,sp,16
     53e:	8082                	ret

00000540 <UART_MQTT_Checksumm_validation>:
     540:	7179                	addi	sp,sp,-48
     542:	d622                	sw	s0,44(sp)
     544:	1800                	addi	s0,sp,48
     546:	fca42e23          	sw	a0,-36(s0)
     54a:	fe041623          	sh	zero,-20(s0)
     54e:	fe041523          	sh	zero,-22(s0)
     552:	fdc42783          	lw	a5,-36(s0)
     556:	0785                	addi	a5,a5,1
     558:	239c                	lbu	a5,0(a5)
     55a:	01079713          	slli	a4,a5,0x10
     55e:	8341                	srli	a4,a4,0x10
     560:	fdc42783          	lw	a5,-36(s0)
     564:	0789                	addi	a5,a5,2
     566:	239c                	lbu	a5,0(a5)
     568:	07c2                	slli	a5,a5,0x10
     56a:	83c1                	srli	a5,a5,0x10
     56c:	97ba                	add	a5,a5,a4
     56e:	01079713          	slli	a4,a5,0x10
     572:	8341                	srli	a4,a4,0x10
     574:	fdc42783          	lw	a5,-36(s0)
     578:	078d                	addi	a5,a5,3
     57a:	239c                	lbu	a5,0(a5)
     57c:	07c2                	slli	a5,a5,0x10
     57e:	83c1                	srli	a5,a5,0x10
     580:	97ba                	add	a5,a5,a4
     582:	01079713          	slli	a4,a5,0x10
     586:	8341                	srli	a4,a4,0x10
     588:	fdc42783          	lw	a5,-36(s0)
     58c:	0791                	addi	a5,a5,4
     58e:	239c                	lbu	a5,0(a5)
     590:	07c2                	slli	a5,a5,0x10
     592:	83c1                	srli	a5,a5,0x10
     594:	97ba                	add	a5,a5,a4
     596:	01079713          	slli	a4,a5,0x10
     59a:	8341                	srli	a4,a4,0x10
     59c:	fdc42783          	lw	a5,-36(s0)
     5a0:	0795                	addi	a5,a5,5
     5a2:	239c                	lbu	a5,0(a5)
     5a4:	07c2                	slli	a5,a5,0x10
     5a6:	83c1                	srli	a5,a5,0x10
     5a8:	97ba                	add	a5,a5,a4
     5aa:	01079713          	slli	a4,a5,0x10
     5ae:	8341                	srli	a4,a4,0x10
     5b0:	fdc42783          	lw	a5,-36(s0)
     5b4:	0799                	addi	a5,a5,6
     5b6:	239c                	lbu	a5,0(a5)
     5b8:	07c2                	slli	a5,a5,0x10
     5ba:	83c1                	srli	a5,a5,0x10
     5bc:	97ba                	add	a5,a5,a4
     5be:	07c2                	slli	a5,a5,0x10
     5c0:	83c1                	srli	a5,a5,0x10
     5c2:	40f007b3          	neg	a5,a5
     5c6:	fef41623          	sh	a5,-20(s0)
     5ca:	fdc42783          	lw	a5,-36(s0)
     5ce:	079d                	addi	a5,a5,7
     5d0:	239c                	lbu	a5,0(a5)
     5d2:	07a2                	slli	a5,a5,0x8
     5d4:	01079713          	slli	a4,a5,0x10
     5d8:	8741                	srai	a4,a4,0x10
     5da:	fea41783          	lh	a5,-22(s0)
     5de:	8fd9                	or	a5,a5,a4
     5e0:	01079713          	slli	a4,a5,0x10
     5e4:	8741                	srai	a4,a4,0x10
     5e6:	fdc42783          	lw	a5,-36(s0)
     5ea:	07a1                	addi	a5,a5,8
     5ec:	239c                	lbu	a5,0(a5)
     5ee:	07c2                	slli	a5,a5,0x10
     5f0:	87c1                	srai	a5,a5,0x10
     5f2:	8fd9                	or	a5,a5,a4
     5f4:	07c2                	slli	a5,a5,0x10
     5f6:	87c1                	srai	a5,a5,0x10
     5f8:	fef41523          	sh	a5,-22(s0)
     5fc:	fec45703          	lhu	a4,-20(s0)
     600:	fea45783          	lhu	a5,-22(s0)
     604:	00f71663          	bne	a4,a5,610 <UART_MQTT_Checksumm_validation+0xd0>
     608:	4785                	li	a5,1
     60a:	fef407a3          	sb	a5,-17(s0)
     60e:	a019                	j	614 <UART_MQTT_Checksumm_validation+0xd4>
     610:	fe0407a3          	sb	zero,-17(s0)
     614:	fef44783          	lbu	a5,-17(s0)
     618:	853e                	mv	a0,a5
     61a:	5432                	lw	s0,44(sp)
     61c:	6145                	addi	sp,sp,48
     61e:	8082                	ret

00000620 <UART_MQTT_Send_data_int16_t>:
     620:	7179                	addi	sp,sp,-48
     622:	d606                	sw	ra,44(sp)
     624:	d422                	sw	s0,40(sp)
     626:	1800                	addi	s0,sp,48
     628:	87aa                	mv	a5,a0
     62a:	872e                	mv	a4,a1
     62c:	fcc42c23          	sw	a2,-40(s0)
     630:	fcf40fa3          	sb	a5,-33(s0)
     634:	87ba                	mv	a5,a4
     636:	fcf41e23          	sh	a5,-36(s0)
     63a:	fd842783          	lw	a5,-40(s0)
     63e:	577d                	li	a4,-1
     640:	a398                	sb	a4,0(a5)
     642:	fd842783          	lw	a5,-40(s0)
     646:	0785                	addi	a5,a5,1
     648:	fdf44703          	lbu	a4,-33(s0)
     64c:	a398                	sb	a4,0(a5)
     64e:	fd842783          	lw	a5,-40(s0)
     652:	0789                	addi	a5,a5,2
     654:	4711                	li	a4,4
     656:	a398                	sb	a4,0(a5)
     658:	fdc41783          	lh	a5,-36(s0)
     65c:	4107d713          	srai	a4,a5,0x10
     660:	fd842783          	lw	a5,-40(s0)
     664:	078d                	addi	a5,a5,3
     666:	0ff77713          	andi	a4,a4,255
     66a:	a398                	sb	a4,0(a5)
     66c:	fdc41783          	lh	a5,-36(s0)
     670:	4107d713          	srai	a4,a5,0x10
     674:	fd842783          	lw	a5,-40(s0)
     678:	0791                	addi	a5,a5,4
     67a:	0ff77713          	andi	a4,a4,255
     67e:	a398                	sb	a4,0(a5)
     680:	fdc41783          	lh	a5,-36(s0)
     684:	87a1                	srai	a5,a5,0x8
     686:	01079713          	slli	a4,a5,0x10
     68a:	8741                	srai	a4,a4,0x10
     68c:	fd842783          	lw	a5,-40(s0)
     690:	0795                	addi	a5,a5,5
     692:	0ff77713          	andi	a4,a4,255
     696:	a398                	sb	a4,0(a5)
     698:	fd842783          	lw	a5,-40(s0)
     69c:	0799                	addi	a5,a5,6
     69e:	fdc45703          	lhu	a4,-36(s0)
     6a2:	0ff77713          	andi	a4,a4,255
     6a6:	a398                	sb	a4,0(a5)
     6a8:	fd842783          	lw	a5,-40(s0)
     6ac:	0785                	addi	a5,a5,1
     6ae:	239c                	lbu	a5,0(a5)
     6b0:	01079713          	slli	a4,a5,0x10
     6b4:	8341                	srli	a4,a4,0x10
     6b6:	fd842783          	lw	a5,-40(s0)
     6ba:	0789                	addi	a5,a5,2
     6bc:	239c                	lbu	a5,0(a5)
     6be:	07c2                	slli	a5,a5,0x10
     6c0:	83c1                	srli	a5,a5,0x10
     6c2:	97ba                	add	a5,a5,a4
     6c4:	01079713          	slli	a4,a5,0x10
     6c8:	8341                	srli	a4,a4,0x10
     6ca:	fd842783          	lw	a5,-40(s0)
     6ce:	078d                	addi	a5,a5,3
     6d0:	239c                	lbu	a5,0(a5)
     6d2:	07c2                	slli	a5,a5,0x10
     6d4:	83c1                	srli	a5,a5,0x10
     6d6:	97ba                	add	a5,a5,a4
     6d8:	01079713          	slli	a4,a5,0x10
     6dc:	8341                	srli	a4,a4,0x10
     6de:	fd842783          	lw	a5,-40(s0)
     6e2:	0791                	addi	a5,a5,4
     6e4:	239c                	lbu	a5,0(a5)
     6e6:	07c2                	slli	a5,a5,0x10
     6e8:	83c1                	srli	a5,a5,0x10
     6ea:	97ba                	add	a5,a5,a4
     6ec:	01079713          	slli	a4,a5,0x10
     6f0:	8341                	srli	a4,a4,0x10
     6f2:	fd842783          	lw	a5,-40(s0)
     6f6:	0795                	addi	a5,a5,5
     6f8:	239c                	lbu	a5,0(a5)
     6fa:	07c2                	slli	a5,a5,0x10
     6fc:	83c1                	srli	a5,a5,0x10
     6fe:	97ba                	add	a5,a5,a4
     700:	01079713          	slli	a4,a5,0x10
     704:	8341                	srli	a4,a4,0x10
     706:	fd842783          	lw	a5,-40(s0)
     70a:	0799                	addi	a5,a5,6
     70c:	239c                	lbu	a5,0(a5)
     70e:	07c2                	slli	a5,a5,0x10
     710:	83c1                	srli	a5,a5,0x10
     712:	97ba                	add	a5,a5,a4
     714:	07c2                	slli	a5,a5,0x10
     716:	83c1                	srli	a5,a5,0x10
     718:	40f007b3          	neg	a5,a5
     71c:	fef41723          	sh	a5,-18(s0)
     720:	fee45783          	lhu	a5,-18(s0)
     724:	83a1                	srli	a5,a5,0x8
     726:	01079713          	slli	a4,a5,0x10
     72a:	8341                	srli	a4,a4,0x10
     72c:	fd842783          	lw	a5,-40(s0)
     730:	079d                	addi	a5,a5,7
     732:	0ff77713          	andi	a4,a4,255
     736:	a398                	sb	a4,0(a5)
     738:	fd842783          	lw	a5,-40(s0)
     73c:	07a1                	addi	a5,a5,8
     73e:	fee45703          	lhu	a4,-18(s0)
     742:	0ff77713          	andi	a4,a4,255
     746:	a398                	sb	a4,0(a5)
     748:	06400693          	li	a3,100
     74c:	4625                	li	a2,9
     74e:	fd842583          	lw	a1,-40(s0)
     752:	400147b7          	lui	a5,0x40014
     756:	80078513          	addi	a0,a5,-2048 # 40013800 <_eusrstack+0x2000e800>
     75a:	61f010ef          	jal	ra,2578 <RVMSIS_USART_Transmit>
     75e:	0001                	nop
     760:	50b2                	lw	ra,44(sp)
     762:	5422                	lw	s0,40(sp)
     764:	6145                	addi	sp,sp,48
     766:	8082                	ret

00000768 <UART_MQTT_Send_data_float>:
     768:	7179                	addi	sp,sp,-48
     76a:	d606                	sw	ra,44(sp)
     76c:	d422                	sw	s0,40(sp)
     76e:	1800                	addi	s0,sp,48
     770:	87aa                	mv	a5,a0
     772:	fcb42c23          	sw	a1,-40(s0)
     776:	fcc42a23          	sw	a2,-44(s0)
     77a:	fcf40fa3          	sb	a5,-33(s0)
     77e:	fd442783          	lw	a5,-44(s0)
     782:	577d                	li	a4,-1
     784:	a398                	sb	a4,0(a5)
     786:	fd442783          	lw	a5,-44(s0)
     78a:	0785                	addi	a5,a5,1
     78c:	fdf44703          	lbu	a4,-33(s0)
     790:	a398                	sb	a4,0(a5)
     792:	fd442783          	lw	a5,-44(s0)
     796:	0789                	addi	a5,a5,2
     798:	4721                	li	a4,8
     79a:	a398                	sb	a4,0(a5)
     79c:	fd840793          	addi	a5,s0,-40
     7a0:	439c                	lw	a5,0(a5)
     7a2:	0187d713          	srli	a4,a5,0x18
     7a6:	fd442783          	lw	a5,-44(s0)
     7aa:	078d                	addi	a5,a5,3
     7ac:	0ff77713          	andi	a4,a4,255
     7b0:	a398                	sb	a4,0(a5)
     7b2:	fd840793          	addi	a5,s0,-40
     7b6:	439c                	lw	a5,0(a5)
     7b8:	0107d713          	srli	a4,a5,0x10
     7bc:	fd442783          	lw	a5,-44(s0)
     7c0:	0791                	addi	a5,a5,4
     7c2:	0ff77713          	andi	a4,a4,255
     7c6:	a398                	sb	a4,0(a5)
     7c8:	fd840793          	addi	a5,s0,-40
     7cc:	439c                	lw	a5,0(a5)
     7ce:	0087d713          	srli	a4,a5,0x8
     7d2:	fd442783          	lw	a5,-44(s0)
     7d6:	0795                	addi	a5,a5,5
     7d8:	0ff77713          	andi	a4,a4,255
     7dc:	a398                	sb	a4,0(a5)
     7de:	fd840793          	addi	a5,s0,-40
     7e2:	4398                	lw	a4,0(a5)
     7e4:	fd442783          	lw	a5,-44(s0)
     7e8:	0799                	addi	a5,a5,6
     7ea:	0ff77713          	andi	a4,a4,255
     7ee:	a398                	sb	a4,0(a5)
     7f0:	fd442783          	lw	a5,-44(s0)
     7f4:	0785                	addi	a5,a5,1
     7f6:	239c                	lbu	a5,0(a5)
     7f8:	01079713          	slli	a4,a5,0x10
     7fc:	8341                	srli	a4,a4,0x10
     7fe:	fd442783          	lw	a5,-44(s0)
     802:	0789                	addi	a5,a5,2
     804:	239c                	lbu	a5,0(a5)
     806:	07c2                	slli	a5,a5,0x10
     808:	83c1                	srli	a5,a5,0x10
     80a:	97ba                	add	a5,a5,a4
     80c:	01079713          	slli	a4,a5,0x10
     810:	8341                	srli	a4,a4,0x10
     812:	fd442783          	lw	a5,-44(s0)
     816:	078d                	addi	a5,a5,3
     818:	239c                	lbu	a5,0(a5)
     81a:	07c2                	slli	a5,a5,0x10
     81c:	83c1                	srli	a5,a5,0x10
     81e:	97ba                	add	a5,a5,a4
     820:	01079713          	slli	a4,a5,0x10
     824:	8341                	srli	a4,a4,0x10
     826:	fd442783          	lw	a5,-44(s0)
     82a:	0791                	addi	a5,a5,4
     82c:	239c                	lbu	a5,0(a5)
     82e:	07c2                	slli	a5,a5,0x10
     830:	83c1                	srli	a5,a5,0x10
     832:	97ba                	add	a5,a5,a4
     834:	01079713          	slli	a4,a5,0x10
     838:	8341                	srli	a4,a4,0x10
     83a:	fd442783          	lw	a5,-44(s0)
     83e:	0795                	addi	a5,a5,5
     840:	239c                	lbu	a5,0(a5)
     842:	07c2                	slli	a5,a5,0x10
     844:	83c1                	srli	a5,a5,0x10
     846:	97ba                	add	a5,a5,a4
     848:	01079713          	slli	a4,a5,0x10
     84c:	8341                	srli	a4,a4,0x10
     84e:	fd442783          	lw	a5,-44(s0)
     852:	0799                	addi	a5,a5,6
     854:	239c                	lbu	a5,0(a5)
     856:	07c2                	slli	a5,a5,0x10
     858:	83c1                	srli	a5,a5,0x10
     85a:	97ba                	add	a5,a5,a4
     85c:	07c2                	slli	a5,a5,0x10
     85e:	83c1                	srli	a5,a5,0x10
     860:	40f007b3          	neg	a5,a5
     864:	fef41723          	sh	a5,-18(s0)
     868:	fee45783          	lhu	a5,-18(s0)
     86c:	83a1                	srli	a5,a5,0x8
     86e:	01079713          	slli	a4,a5,0x10
     872:	8341                	srli	a4,a4,0x10
     874:	fd442783          	lw	a5,-44(s0)
     878:	079d                	addi	a5,a5,7
     87a:	0ff77713          	andi	a4,a4,255
     87e:	a398                	sb	a4,0(a5)
     880:	fd442783          	lw	a5,-44(s0)
     884:	07a1                	addi	a5,a5,8
     886:	fee45703          	lhu	a4,-18(s0)
     88a:	0ff77713          	andi	a4,a4,255
     88e:	a398                	sb	a4,0(a5)
     890:	06400693          	li	a3,100
     894:	4625                	li	a2,9
     896:	fd442583          	lw	a1,-44(s0)
     89a:	400147b7          	lui	a5,0x40014
     89e:	80078513          	addi	a0,a5,-2048 # 40013800 <_eusrstack+0x2000e800>
     8a2:	4d7010ef          	jal	ra,2578 <RVMSIS_USART_Transmit>
     8a6:	0001                	nop
     8a8:	50b2                	lw	ra,44(sp)
     8aa:	5422                	lw	s0,40(sp)
     8ac:	6145                	addi	sp,sp,48
     8ae:	8082                	ret

000008b0 <ModbusRTU_CRC16_Calculate>:
     8b0:	7179                	addi	sp,sp,-48
     8b2:	d622                	sw	s0,44(sp)
     8b4:	1800                	addi	s0,sp,48
     8b6:	fca42e23          	sw	a0,-36(s0)
     8ba:	87ae                	mv	a5,a1
     8bc:	8732                	mv	a4,a2
     8be:	fcf40da3          	sb	a5,-37(s0)
     8c2:	87ba                	mv	a5,a4
     8c4:	fcf40d23          	sb	a5,-38(s0)
     8c8:	57fd                	li	a5,-1
     8ca:	fef41723          	sh	a5,-18(s0)
     8ce:	a095                	j	932 <ModbusRTU_CRC16_Calculate+0x82>
     8d0:	fdc42783          	lw	a5,-36(s0)
     8d4:	00178713          	addi	a4,a5,1
     8d8:	fce42e23          	sw	a4,-36(s0)
     8dc:	239c                	lbu	a5,0(a5)
     8de:	01079713          	slli	a4,a5,0x10
     8e2:	8341                	srli	a4,a4,0x10
     8e4:	fee45783          	lhu	a5,-18(s0)
     8e8:	8fb9                	xor	a5,a5,a4
     8ea:	fef41723          	sh	a5,-18(s0)
     8ee:	fe042423          	sw	zero,-24(s0)
     8f2:	a81d                	j	928 <ModbusRTU_CRC16_Calculate+0x78>
     8f4:	fee45783          	lhu	a5,-18(s0)
     8f8:	8b85                	andi	a5,a5,1
     8fa:	cf89                	beqz	a5,914 <ModbusRTU_CRC16_Calculate+0x64>
     8fc:	fee45783          	lhu	a5,-18(s0)
     900:	8385                	srli	a5,a5,0x1
     902:	01079713          	slli	a4,a5,0x10
     906:	8341                	srli	a4,a4,0x10
     908:	77e9                	lui	a5,0xffffa
     90a:	0785                	addi	a5,a5,1
     90c:	8fb9                	xor	a5,a5,a4
     90e:	fef41723          	sh	a5,-18(s0)
     912:	a031                	j	91e <ModbusRTU_CRC16_Calculate+0x6e>
     914:	fee45783          	lhu	a5,-18(s0)
     918:	8385                	srli	a5,a5,0x1
     91a:	fef41723          	sh	a5,-18(s0)
     91e:	fe842783          	lw	a5,-24(s0)
     922:	0785                	addi	a5,a5,1
     924:	fef42423          	sw	a5,-24(s0)
     928:	fe842703          	lw	a4,-24(s0)
     92c:	479d                	li	a5,7
     92e:	fce7d3e3          	bge	a5,a4,8f4 <ModbusRTU_CRC16_Calculate+0x44>
     932:	fdb44783          	lbu	a5,-37(s0)
     936:	fff78713          	addi	a4,a5,-1 # ffff9fff <_eusrstack+0xdfff4fff>
     93a:	fce40da3          	sb	a4,-37(s0)
     93e:	fbc9                	bnez	a5,8d0 <ModbusRTU_CRC16_Calculate+0x20>
     940:	fda44783          	lbu	a5,-38(s0)
     944:	470d                	li	a4,3
     946:	00e78c63          	beq	a5,a4,95e <ModbusRTU_CRC16_Calculate+0xae>
     94a:	470d                	li	a4,3
     94c:	10f75063          	bge	a4,a5,a4c <ModbusRTU_CRC16_Calculate+0x19c>
     950:	4711                	li	a4,4
     952:	02e78963          	beq	a5,a4,984 <ModbusRTU_CRC16_Calculate+0xd4>
     956:	4715                	li	a4,5
     958:	08e78463          	beq	a5,a4,9e0 <ModbusRTU_CRC16_Calculate+0x130>
     95c:	a8cd                	j	a4e <ModbusRTU_CRC16_Calculate+0x19e>
     95e:	fee45783          	lhu	a5,-18(s0)
     962:	07a2                	slli	a5,a5,0x8
     964:	01079713          	slli	a4,a5,0x10
     968:	8741                	srai	a4,a4,0x10
     96a:	fee45783          	lhu	a5,-18(s0)
     96e:	83a1                	srli	a5,a5,0x8
     970:	07c2                	slli	a5,a5,0x10
     972:	83c1                	srli	a5,a5,0x10
     974:	07c2                	slli	a5,a5,0x10
     976:	87c1                	srai	a5,a5,0x10
     978:	8fd9                	or	a5,a5,a4
     97a:	07c2                	slli	a5,a5,0x10
     97c:	87c1                	srai	a5,a5,0x10
     97e:	fef41723          	sh	a5,-18(s0)
     982:	a0f1                	j	a4e <ModbusRTU_CRC16_Calculate+0x19e>
     984:	fee45783          	lhu	a5,-18(s0)
     988:	83a1                	srli	a5,a5,0x8
     98a:	07c2                	slli	a5,a5,0x10
     98c:	83c1                	srli	a5,a5,0x10
     98e:	07b2                	slli	a5,a5,0xc
     990:	01079713          	slli	a4,a5,0x10
     994:	8741                	srai	a4,a4,0x10
     996:	fee45783          	lhu	a5,-18(s0)
     99a:	83b1                	srli	a5,a5,0xc
     99c:	07c2                	slli	a5,a5,0x10
     99e:	83c1                	srli	a5,a5,0x10
     9a0:	07a2                	slli	a5,a5,0x8
     9a2:	07c2                	slli	a5,a5,0x10
     9a4:	87c1                	srai	a5,a5,0x10
     9a6:	8fd9                	or	a5,a5,a4
     9a8:	01079713          	slli	a4,a5,0x10
     9ac:	8741                	srai	a4,a4,0x10
     9ae:	fee45783          	lhu	a5,-18(s0)
     9b2:	07c2                	slli	a5,a5,0x10
     9b4:	07c2                	slli	a5,a5,0x10
     9b6:	87c1                	srai	a5,a5,0x10
     9b8:	8fd9                	or	a5,a5,a4
     9ba:	01079713          	slli	a4,a5,0x10
     9be:	8741                	srai	a4,a4,0x10
     9c0:	fee45783          	lhu	a5,-18(s0)
     9c4:	8391                	srli	a5,a5,0x4
     9c6:	07c2                	slli	a5,a5,0x10
     9c8:	83c1                	srli	a5,a5,0x10
     9ca:	07c2                	slli	a5,a5,0x10
     9cc:	87c1                	srai	a5,a5,0x10
     9ce:	8bbd                	andi	a5,a5,15
     9d0:	07c2                	slli	a5,a5,0x10
     9d2:	87c1                	srai	a5,a5,0x10
     9d4:	8fd9                	or	a5,a5,a4
     9d6:	07c2                	slli	a5,a5,0x10
     9d8:	87c1                	srai	a5,a5,0x10
     9da:	fef41723          	sh	a5,-18(s0)
     9de:	a885                	j	a4e <ModbusRTU_CRC16_Calculate+0x19e>
     9e0:	fee45783          	lhu	a5,-18(s0)
     9e4:	83a1                	srli	a5,a5,0x8
     9e6:	07c2                	slli	a5,a5,0x10
     9e8:	83c1                	srli	a5,a5,0x10
     9ea:	0792                	slli	a5,a5,0x4
     9ec:	07c2                	slli	a5,a5,0x10
     9ee:	87c1                	srai	a5,a5,0x10
     9f0:	0ff7f793          	andi	a5,a5,255
     9f4:	01079713          	slli	a4,a5,0x10
     9f8:	8741                	srai	a4,a4,0x10
     9fa:	fee45783          	lhu	a5,-18(s0)
     9fe:	83b1                	srli	a5,a5,0xc
     a00:	07c2                	slli	a5,a5,0x10
     a02:	83c1                	srli	a5,a5,0x10
     a04:	07c2                	slli	a5,a5,0x10
     a06:	87c1                	srai	a5,a5,0x10
     a08:	8fd9                	or	a5,a5,a4
     a0a:	01079713          	slli	a4,a5,0x10
     a0e:	8741                	srai	a4,a4,0x10
     a10:	fee45783          	lhu	a5,-18(s0)
     a14:	07e2                	slli	a5,a5,0x18
     a16:	07c2                	slli	a5,a5,0x10
     a18:	87c1                	srai	a5,a5,0x10
     a1a:	8fd9                	or	a5,a5,a4
     a1c:	01079713          	slli	a4,a5,0x10
     a20:	8741                	srai	a4,a4,0x10
     a22:	fee45783          	lhu	a5,-18(s0)
     a26:	8391                	srli	a5,a5,0x4
     a28:	07c2                	slli	a5,a5,0x10
     a2a:	83c1                	srli	a5,a5,0x10
     a2c:	07a2                	slli	a5,a5,0x8
     a2e:	01079693          	slli	a3,a5,0x10
     a32:	86c1                	srai	a3,a3,0x10
     a34:	6785                	lui	a5,0x1
     a36:	f0078793          	addi	a5,a5,-256 # f00 <ModbusRTU_response_handler+0x15e>
     a3a:	8ff5                	and	a5,a5,a3
     a3c:	07c2                	slli	a5,a5,0x10
     a3e:	87c1                	srai	a5,a5,0x10
     a40:	8fd9                	or	a5,a5,a4
     a42:	07c2                	slli	a5,a5,0x10
     a44:	87c1                	srai	a5,a5,0x10
     a46:	fef41723          	sh	a5,-18(s0)
     a4a:	a011                	j	a4e <ModbusRTU_CRC16_Calculate+0x19e>
     a4c:	0001                	nop
     a4e:	fee45783          	lhu	a5,-18(s0)
     a52:	853e                	mv	a0,a5
     a54:	5432                	lw	s0,44(sp)
     a56:	6145                	addi	sp,sp,48
     a58:	8082                	ret

00000a5a <ModbusRTU_Read_Holding_Registers_0x03>:
     a5a:	7179                	addi	sp,sp,-48
     a5c:	d606                	sw	ra,44(sp)
     a5e:	d422                	sw	s0,40(sp)
     a60:	1800                	addi	s0,sp,48
     a62:	87aa                	mv	a5,a0
     a64:	8736                	mv	a4,a3
     a66:	fcf40fa3          	sb	a5,-33(s0)
     a6a:	87ae                	mv	a5,a1
     a6c:	fcf41e23          	sh	a5,-36(s0)
     a70:	87b2                	mv	a5,a2
     a72:	fcf40f23          	sb	a5,-34(s0)
     a76:	87ba                	mv	a5,a4
     a78:	fcf40da3          	sb	a5,-37(s0)
     a7c:	200007b7          	lui	a5,0x20000
     a80:	fdf44703          	lbu	a4,-33(s0)
     a84:	04e78c23          	sb	a4,88(a5) # 20000058 <ModbusRTU_tx_buffer>
     a88:	200007b7          	lui	a5,0x20000
     a8c:	05878793          	addi	a5,a5,88 # 20000058 <ModbusRTU_tx_buffer>
     a90:	470d                	li	a4,3
     a92:	b398                	sb	a4,1(a5)
     a94:	fdc45783          	lhu	a5,-36(s0)
     a98:	83a1                	srli	a5,a5,0x8
     a9a:	07c2                	slli	a5,a5,0x10
     a9c:	83c1                	srli	a5,a5,0x10
     a9e:	0ff7f713          	andi	a4,a5,255
     aa2:	200007b7          	lui	a5,0x20000
     aa6:	05878793          	addi	a5,a5,88 # 20000058 <ModbusRTU_tx_buffer>
     aaa:	a3b8                	sb	a4,2(a5)
     aac:	fdc45783          	lhu	a5,-36(s0)
     ab0:	0ff7f713          	andi	a4,a5,255
     ab4:	200007b7          	lui	a5,0x20000
     ab8:	05878793          	addi	a5,a5,88 # 20000058 <ModbusRTU_tx_buffer>
     abc:	b3b8                	sb	a4,3(a5)
     abe:	200007b7          	lui	a5,0x20000
     ac2:	05878793          	addi	a5,a5,88 # 20000058 <ModbusRTU_tx_buffer>
     ac6:	00078223          	sb	zero,4(a5)
     aca:	200007b7          	lui	a5,0x20000
     ace:	05878793          	addi	a5,a5,88 # 20000058 <ModbusRTU_tx_buffer>
     ad2:	fde44703          	lbu	a4,-34(s0)
     ad6:	b3d8                	sb	a4,5(a5)
     ad8:	fdb44783          	lbu	a5,-37(s0)
     adc:	863e                	mv	a2,a5
     ade:	4599                	li	a1,6
     ae0:	200007b7          	lui	a5,0x20000
     ae4:	05878513          	addi	a0,a5,88 # 20000058 <ModbusRTU_tx_buffer>
     ae8:	33e1                	jal	8b0 <ModbusRTU_CRC16_Calculate>
     aea:	87aa                	mv	a5,a0
     aec:	fef41723          	sh	a5,-18(s0)
     af0:	fee45783          	lhu	a5,-18(s0)
     af4:	83a1                	srli	a5,a5,0x8
     af6:	07c2                	slli	a5,a5,0x10
     af8:	83c1                	srli	a5,a5,0x10
     afa:	0ff7f713          	andi	a4,a5,255
     afe:	200007b7          	lui	a5,0x20000
     b02:	05878793          	addi	a5,a5,88 # 20000058 <ModbusRTU_tx_buffer>
     b06:	a3f8                	sb	a4,6(a5)
     b08:	fee45783          	lhu	a5,-18(s0)
     b0c:	0ff7f713          	andi	a4,a5,255
     b10:	200007b7          	lui	a5,0x20000
     b14:	05878793          	addi	a5,a5,88 # 20000058 <ModbusRTU_tx_buffer>
     b18:	b3f8                	sb	a4,7(a5)
     b1a:	06400693          	li	a3,100
     b1e:	4621                	li	a2,8
     b20:	200007b7          	lui	a5,0x20000
     b24:	05878593          	addi	a1,a5,88 # 20000058 <ModbusRTU_tx_buffer>
     b28:	400047b7          	lui	a5,0x40004
     b2c:	40078513          	addi	a0,a5,1024 # 40004400 <_eusrstack+0x1ffff400>
     b30:	2e9010ef          	jal	ra,2618 <ModbusRTU_Transmit>
     b34:	0001                	nop
     b36:	50b2                	lw	ra,44(sp)
     b38:	5422                	lw	s0,40(sp)
     b3a:	6145                	addi	sp,sp,48
     b3c:	8082                	ret

00000b3e <ModbusRTU_GetData_U32>:
     b3e:	7179                	addi	sp,sp,-48
     b40:	d622                	sw	s0,44(sp)
     b42:	1800                	addi	s0,sp,48
     b44:	fca42e23          	sw	a0,-36(s0)
     b48:	87ae                	mv	a5,a1
     b4a:	8732                	mv	a4,a2
     b4c:	fcf40da3          	sb	a5,-37(s0)
     b50:	87ba                	mv	a5,a4
     b52:	fcf40d23          	sb	a5,-38(s0)
     b56:	fe042623          	sw	zero,-20(s0)
     b5a:	fda44783          	lbu	a5,-38(s0)
     b5e:	470d                	li	a4,3
     b60:	06e78563          	beq	a5,a4,bca <ModbusRTU_GetData_U32+0x8c>
     b64:	470d                	li	a4,3
     b66:	00f74663          	blt	a4,a5,b72 <ModbusRTU_GetData_U32+0x34>
     b6a:	4709                	li	a4,2
     b6c:	00e78a63          	beq	a5,a4,b80 <ModbusRTU_GetData_U32+0x42>
     b70:	aa25                	j	ca8 <ModbusRTU_GetData_U32+0x16a>
     b72:	4711                	li	a4,4
     b74:	0ae78063          	beq	a5,a4,c14 <ModbusRTU_GetData_U32+0xd6>
     b78:	4715                	li	a4,5
     b7a:	0ee78263          	beq	a5,a4,c5e <ModbusRTU_GetData_U32+0x120>
     b7e:	a22d                	j	ca8 <ModbusRTU_GetData_U32+0x16a>
     b80:	fdb44783          	lbu	a5,-37(s0)
     b84:	fdc42703          	lw	a4,-36(s0)
     b88:	97ba                	add	a5,a5,a4
     b8a:	239c                	lbu	a5,0(a5)
     b8c:	01879713          	slli	a4,a5,0x18
     b90:	fdb44783          	lbu	a5,-37(s0)
     b94:	0785                	addi	a5,a5,1
     b96:	fdc42683          	lw	a3,-36(s0)
     b9a:	97b6                	add	a5,a5,a3
     b9c:	239c                	lbu	a5,0(a5)
     b9e:	07c2                	slli	a5,a5,0x10
     ba0:	8f5d                	or	a4,a4,a5
     ba2:	fdb44783          	lbu	a5,-37(s0)
     ba6:	0789                	addi	a5,a5,2
     ba8:	fdc42683          	lw	a3,-36(s0)
     bac:	97b6                	add	a5,a5,a3
     bae:	239c                	lbu	a5,0(a5)
     bb0:	07a2                	slli	a5,a5,0x8
     bb2:	8fd9                	or	a5,a5,a4
     bb4:	fdb44703          	lbu	a4,-37(s0)
     bb8:	070d                	addi	a4,a4,3
     bba:	fdc42683          	lw	a3,-36(s0)
     bbe:	9736                	add	a4,a4,a3
     bc0:	2318                	lbu	a4,0(a4)
     bc2:	8fd9                	or	a5,a5,a4
     bc4:	fef42623          	sw	a5,-20(s0)
     bc8:	a0c5                	j	ca8 <ModbusRTU_GetData_U32+0x16a>
     bca:	fdb44783          	lbu	a5,-37(s0)
     bce:	0789                	addi	a5,a5,2
     bd0:	fdc42703          	lw	a4,-36(s0)
     bd4:	97ba                	add	a5,a5,a4
     bd6:	239c                	lbu	a5,0(a5)
     bd8:	01879713          	slli	a4,a5,0x18
     bdc:	fdb44783          	lbu	a5,-37(s0)
     be0:	078d                	addi	a5,a5,3
     be2:	fdc42683          	lw	a3,-36(s0)
     be6:	97b6                	add	a5,a5,a3
     be8:	239c                	lbu	a5,0(a5)
     bea:	07c2                	slli	a5,a5,0x10
     bec:	8f5d                	or	a4,a4,a5
     bee:	fdb44783          	lbu	a5,-37(s0)
     bf2:	fdc42683          	lw	a3,-36(s0)
     bf6:	97b6                	add	a5,a5,a3
     bf8:	239c                	lbu	a5,0(a5)
     bfa:	07a2                	slli	a5,a5,0x8
     bfc:	8fd9                	or	a5,a5,a4
     bfe:	fdb44703          	lbu	a4,-37(s0)
     c02:	0705                	addi	a4,a4,1
     c04:	fdc42683          	lw	a3,-36(s0)
     c08:	9736                	add	a4,a4,a3
     c0a:	2318                	lbu	a4,0(a4)
     c0c:	8fd9                	or	a5,a5,a4
     c0e:	fef42623          	sw	a5,-20(s0)
     c12:	a859                	j	ca8 <ModbusRTU_GetData_U32+0x16a>
     c14:	fdb44783          	lbu	a5,-37(s0)
     c18:	0785                	addi	a5,a5,1
     c1a:	fdc42703          	lw	a4,-36(s0)
     c1e:	97ba                	add	a5,a5,a4
     c20:	239c                	lbu	a5,0(a5)
     c22:	01879713          	slli	a4,a5,0x18
     c26:	fdb44783          	lbu	a5,-37(s0)
     c2a:	fdc42683          	lw	a3,-36(s0)
     c2e:	97b6                	add	a5,a5,a3
     c30:	239c                	lbu	a5,0(a5)
     c32:	07c2                	slli	a5,a5,0x10
     c34:	8f5d                	or	a4,a4,a5
     c36:	fdb44783          	lbu	a5,-37(s0)
     c3a:	078d                	addi	a5,a5,3
     c3c:	fdc42683          	lw	a3,-36(s0)
     c40:	97b6                	add	a5,a5,a3
     c42:	239c                	lbu	a5,0(a5)
     c44:	07a2                	slli	a5,a5,0x8
     c46:	8fd9                	or	a5,a5,a4
     c48:	fdb44703          	lbu	a4,-37(s0)
     c4c:	0709                	addi	a4,a4,2
     c4e:	fdc42683          	lw	a3,-36(s0)
     c52:	9736                	add	a4,a4,a3
     c54:	2318                	lbu	a4,0(a4)
     c56:	8fd9                	or	a5,a5,a4
     c58:	fef42623          	sw	a5,-20(s0)
     c5c:	a0b1                	j	ca8 <ModbusRTU_GetData_U32+0x16a>
     c5e:	fdb44783          	lbu	a5,-37(s0)
     c62:	078d                	addi	a5,a5,3
     c64:	fdc42703          	lw	a4,-36(s0)
     c68:	97ba                	add	a5,a5,a4
     c6a:	239c                	lbu	a5,0(a5)
     c6c:	01879713          	slli	a4,a5,0x18
     c70:	fdb44783          	lbu	a5,-37(s0)
     c74:	0789                	addi	a5,a5,2
     c76:	fdc42683          	lw	a3,-36(s0)
     c7a:	97b6                	add	a5,a5,a3
     c7c:	239c                	lbu	a5,0(a5)
     c7e:	07c2                	slli	a5,a5,0x10
     c80:	8f5d                	or	a4,a4,a5
     c82:	fdb44783          	lbu	a5,-37(s0)
     c86:	0785                	addi	a5,a5,1
     c88:	fdc42683          	lw	a3,-36(s0)
     c8c:	97b6                	add	a5,a5,a3
     c8e:	239c                	lbu	a5,0(a5)
     c90:	07a2                	slli	a5,a5,0x8
     c92:	8fd9                	or	a5,a5,a4
     c94:	fdb44703          	lbu	a4,-37(s0)
     c98:	fdc42683          	lw	a3,-36(s0)
     c9c:	9736                	add	a4,a4,a3
     c9e:	2318                	lbu	a4,0(a4)
     ca0:	8fd9                	or	a5,a5,a4
     ca2:	fef42623          	sw	a5,-20(s0)
     ca6:	0001                	nop
     ca8:	fec42783          	lw	a5,-20(s0)
     cac:	853e                	mv	a0,a5
     cae:	5432                	lw	s0,44(sp)
     cb0:	6145                	addi	sp,sp,48
     cb2:	8082                	ret

00000cb4 <ModbusRTU_GetData_U16>:
     cb4:	7179                	addi	sp,sp,-48
     cb6:	d622                	sw	s0,44(sp)
     cb8:	1800                	addi	s0,sp,48
     cba:	fca42e23          	sw	a0,-36(s0)
     cbe:	87ae                	mv	a5,a1
     cc0:	8732                	mv	a4,a2
     cc2:	fcf40da3          	sb	a5,-37(s0)
     cc6:	87ba                	mv	a5,a4
     cc8:	fcf40d23          	sb	a5,-38(s0)
     ccc:	fe041723          	sh	zero,-18(s0)
     cd0:	fda44783          	lbu	a5,-38(s0)
     cd4:	c789                	beqz	a5,cde <ModbusRTU_GetData_U16+0x2a>
     cd6:	4705                	li	a4,1
     cd8:	02e78c63          	beq	a5,a4,d10 <ModbusRTU_GetData_U16+0x5c>
     cdc:	a09d                	j	d42 <ModbusRTU_GetData_U16+0x8e>
     cde:	fdb44783          	lbu	a5,-37(s0)
     ce2:	fdc42703          	lw	a4,-36(s0)
     ce6:	97ba                	add	a5,a5,a4
     ce8:	239c                	lbu	a5,0(a5)
     cea:	07a2                	slli	a5,a5,0x8
     cec:	01079713          	slli	a4,a5,0x10
     cf0:	8741                	srai	a4,a4,0x10
     cf2:	fdb44783          	lbu	a5,-37(s0)
     cf6:	0785                	addi	a5,a5,1
     cf8:	fdc42683          	lw	a3,-36(s0)
     cfc:	97b6                	add	a5,a5,a3
     cfe:	239c                	lbu	a5,0(a5)
     d00:	07c2                	slli	a5,a5,0x10
     d02:	87c1                	srai	a5,a5,0x10
     d04:	8fd9                	or	a5,a5,a4
     d06:	07c2                	slli	a5,a5,0x10
     d08:	87c1                	srai	a5,a5,0x10
     d0a:	fef41723          	sh	a5,-18(s0)
     d0e:	a815                	j	d42 <ModbusRTU_GetData_U16+0x8e>
     d10:	fdb44783          	lbu	a5,-37(s0)
     d14:	0785                	addi	a5,a5,1
     d16:	fdc42703          	lw	a4,-36(s0)
     d1a:	97ba                	add	a5,a5,a4
     d1c:	239c                	lbu	a5,0(a5)
     d1e:	07a2                	slli	a5,a5,0x8
     d20:	01079713          	slli	a4,a5,0x10
     d24:	8741                	srai	a4,a4,0x10
     d26:	fdb44783          	lbu	a5,-37(s0)
     d2a:	fdc42683          	lw	a3,-36(s0)
     d2e:	97b6                	add	a5,a5,a3
     d30:	239c                	lbu	a5,0(a5)
     d32:	07c2                	slli	a5,a5,0x10
     d34:	87c1                	srai	a5,a5,0x10
     d36:	8fd9                	or	a5,a5,a4
     d38:	07c2                	slli	a5,a5,0x10
     d3a:	87c1                	srai	a5,a5,0x10
     d3c:	fef41723          	sh	a5,-18(s0)
     d40:	0001                	nop
     d42:	fee45783          	lhu	a5,-18(s0)
     d46:	853e                	mv	a0,a5
     d48:	5432                	lw	s0,44(sp)
     d4a:	6145                	addi	sp,sp,48
     d4c:	8082                	ret

00000d4e <ModbusRTU_request_queue>:
     d4e:	1101                	addi	sp,sp,-32
     d50:	ce06                	sw	ra,28(sp)
     d52:	cc22                	sw	s0,24(sp)
     d54:	1000                	addi	s0,sp,32
     d56:	87aa                	mv	a5,a0
     d58:	fef407a3          	sb	a5,-17(s0)
     d5c:	fef44783          	lbu	a5,-17(s0)
     d60:	4719                	li	a4,6
     d62:	02f76b63          	bltu	a4,a5,d98 <ModbusRTU_request_queue+0x4a>
     d66:	00279713          	slli	a4,a5,0x2
     d6a:	678d                	lui	a5,0x3
     d6c:	0b878793          	addi	a5,a5,184 # 30b8 <__clzsi2+0x7c>
     d70:	97ba                	add	a5,a5,a4
     d72:	439c                	lw	a5,0(a5)
     d74:	8782                	jr	a5
     d76:	468d                	li	a3,3
     d78:	463d                	li	a2,15
     d7a:	6595                	lui	a1,0x5
     d7c:	0f700513          	li	a0,247
     d80:	39e9                	jal	a5a <ModbusRTU_Read_Holding_Registers_0x03>
     d82:	a819                	j	d98 <ModbusRTU_request_queue+0x4a>
     d84:	468d                	li	a3,3
     d86:	4605                	li	a2,1
     d88:	6795                	lui	a5,0x5
     d8a:	02d78593          	addi	a1,a5,45 # 502d <_data_lma+0x1dfd>
     d8e:	0f700513          	li	a0,247
     d92:	31e1                	jal	a5a <ModbusRTU_Read_Holding_Registers_0x03>
     d94:	a011                	j	d98 <ModbusRTU_request_queue+0x4a>
     d96:	0001                	nop
     d98:	0001                	nop
     d9a:	40f2                	lw	ra,28(sp)
     d9c:	4462                	lw	s0,24(sp)
     d9e:	6105                	addi	sp,sp,32
     da0:	8082                	ret

00000da2 <ModbusRTU_response_handler>:
     da2:	1101                	addi	sp,sp,-32
     da4:	ce06                	sw	ra,28(sp)
     da6:	cc22                	sw	s0,24(sp)
     da8:	1000                	addi	s0,sp,32
     daa:	87aa                	mv	a5,a0
     dac:	fef407a3          	sb	a5,-17(s0)
     db0:	fef44783          	lbu	a5,-17(s0)
     db4:	4719                	li	a4,6
     db6:	20f76c63          	bltu	a4,a5,fce <ModbusRTU_response_handler+0x22c>
     dba:	00279713          	slli	a4,a5,0x2
     dbe:	678d                	lui	a5,0x3
     dc0:	0d478793          	addi	a5,a5,212 # 30d4 <__clzsi2+0x98>
     dc4:	97ba                	add	a5,a5,a4
     dc6:	439c                	lw	a5,0(a5)
     dc8:	8782                	jr	a5
     dca:	4609                	li	a2,2
     dcc:	458d                	li	a1,3
     dce:	a9c18513          	addi	a0,gp,-1380 # 2000029c <husart2>
     dd2:	33b5                	jal	b3e <ModbusRTU_GetData_U32>
     dd4:	87aa                	mv	a5,a0
     dd6:	853e                	mv	a0,a5
     dd8:	7c7010ef          	jal	ra,2d9e <__floatunsidf>
     ddc:	678d                	lui	a5,0x3
     dde:	0b07a603          	lw	a2,176(a5) # 30b0 <__clzsi2+0x74>
     de2:	0b47a683          	lw	a3,180(a5)
     de6:	299010ef          	jal	ra,287e <__muldf3>
     dea:	87aa                	mv	a5,a0
     dec:	882e                	mv	a6,a1
     dee:	853e                	mv	a0,a5
     df0:	85c2                	mv	a1,a6
     df2:	0e0020ef          	jal	ra,2ed2 <__truncdfsf2>
     df6:	872a                	mv	a4,a0
     df8:	80e1a823          	sw	a4,-2032(gp) # 20000010 <ABB_E31_Total_active_energy>
     dfc:	4609                	li	a2,2
     dfe:	459d                	li	a1,7
     e00:	a9c18513          	addi	a0,gp,-1380 # 2000029c <husart2>
     e04:	3b2d                	jal	b3e <ModbusRTU_GetData_U32>
     e06:	87aa                	mv	a5,a0
     e08:	853e                	mv	a0,a5
     e0a:	795010ef          	jal	ra,2d9e <__floatunsidf>
     e0e:	678d                	lui	a5,0x3
     e10:	0b07a603          	lw	a2,176(a5) # 30b0 <__clzsi2+0x74>
     e14:	0b47a683          	lw	a3,180(a5)
     e18:	267010ef          	jal	ra,287e <__muldf3>
     e1c:	87aa                	mv	a5,a0
     e1e:	882e                	mv	a6,a1
     e20:	853e                	mv	a0,a5
     e22:	85c2                	mv	a1,a6
     e24:	0ae020ef          	jal	ra,2ed2 <__truncdfsf2>
     e28:	872a                	mv	a4,a0
     e2a:	80e1aa23          	sw	a4,-2028(gp) # 20000014 <ABB_E31_Active_energy_1>
     e2e:	4609                	li	a2,2
     e30:	45ad                	li	a1,11
     e32:	a9c18513          	addi	a0,gp,-1380 # 2000029c <husart2>
     e36:	3321                	jal	b3e <ModbusRTU_GetData_U32>
     e38:	87aa                	mv	a5,a0
     e3a:	853e                	mv	a0,a5
     e3c:	763010ef          	jal	ra,2d9e <__floatunsidf>
     e40:	678d                	lui	a5,0x3
     e42:	0b07a603          	lw	a2,176(a5) # 30b0 <__clzsi2+0x74>
     e46:	0b47a683          	lw	a3,180(a5)
     e4a:	235010ef          	jal	ra,287e <__muldf3>
     e4e:	87aa                	mv	a5,a0
     e50:	882e                	mv	a6,a1
     e52:	853e                	mv	a0,a5
     e54:	85c2                	mv	a1,a6
     e56:	07c020ef          	jal	ra,2ed2 <__truncdfsf2>
     e5a:	872a                	mv	a4,a0
     e5c:	80e1ac23          	sw	a4,-2024(gp) # 20000018 <ABB_E31_Active_energy_2>
     e60:	4609                	li	a2,2
     e62:	45bd                	li	a1,15
     e64:	a9c18513          	addi	a0,gp,-1380 # 2000029c <husart2>
     e68:	39d9                	jal	b3e <ModbusRTU_GetData_U32>
     e6a:	87aa                	mv	a5,a0
     e6c:	853e                	mv	a0,a5
     e6e:	731010ef          	jal	ra,2d9e <__floatunsidf>
     e72:	678d                	lui	a5,0x3
     e74:	0b07a603          	lw	a2,176(a5) # 30b0 <__clzsi2+0x74>
     e78:	0b47a683          	lw	a3,180(a5)
     e7c:	203010ef          	jal	ra,287e <__muldf3>
     e80:	87aa                	mv	a5,a0
     e82:	882e                	mv	a6,a1
     e84:	853e                	mv	a0,a5
     e86:	85c2                	mv	a1,a6
     e88:	04a020ef          	jal	ra,2ed2 <__truncdfsf2>
     e8c:	872a                	mv	a4,a0
     e8e:	80e1ae23          	sw	a4,-2020(gp) # 2000001c <ABB_E31_Active_energy_3>
     e92:	4609                	li	a2,2
     e94:	45cd                	li	a1,19
     e96:	a9c18513          	addi	a0,gp,-1380 # 2000029c <husart2>
     e9a:	3155                	jal	b3e <ModbusRTU_GetData_U32>
     e9c:	87aa                	mv	a5,a0
     e9e:	853e                	mv	a0,a5
     ea0:	6ff010ef          	jal	ra,2d9e <__floatunsidf>
     ea4:	678d                	lui	a5,0x3
     ea6:	0b07a603          	lw	a2,176(a5) # 30b0 <__clzsi2+0x74>
     eaa:	0b47a683          	lw	a3,180(a5)
     eae:	1d1010ef          	jal	ra,287e <__muldf3>
     eb2:	87aa                	mv	a5,a0
     eb4:	882e                	mv	a6,a1
     eb6:	853e                	mv	a0,a5
     eb8:	85c2                	mv	a1,a6
     eba:	018020ef          	jal	ra,2ed2 <__truncdfsf2>
     ebe:	872a                	mv	a4,a0
     ec0:	82e1a023          	sw	a4,-2016(gp) # 20000020 <ABB_E31_Active_energy_4>
     ec4:	4601                	li	a2,0
     ec6:	45dd                	li	a1,23
     ec8:	a9c18513          	addi	a0,gp,-1380 # 2000029c <husart2>
     ecc:	33e5                	jal	cb4 <ModbusRTU_GetData_U16>
     ece:	87aa                	mv	a5,a0
     ed0:	853e                	mv	a0,a5
     ed2:	65d010ef          	jal	ra,2d2e <__floatsidf>
     ed6:	678d                	lui	a5,0x3
     ed8:	0b07a603          	lw	a2,176(a5) # 30b0 <__clzsi2+0x74>
     edc:	0b47a683          	lw	a3,180(a5)
     ee0:	19f010ef          	jal	ra,287e <__muldf3>
     ee4:	87aa                	mv	a5,a0
     ee6:	882e                	mv	a6,a1
     ee8:	853e                	mv	a0,a5
     eea:	85c2                	mv	a1,a6
     eec:	7e7010ef          	jal	ra,2ed2 <__truncdfsf2>
     ef0:	872a                	mv	a4,a0
     ef2:	82e1a223          	sw	a4,-2012(gp) # 20000024 <ABB_E31_Voltage>
     ef6:	4601                	li	a2,0
     ef8:	45e5                	li	a1,25
     efa:	a9c18513          	addi	a0,gp,-1380 # 2000029c <husart2>
     efe:	3b5d                	jal	cb4 <ModbusRTU_GetData_U16>
     f00:	87aa                	mv	a5,a0
     f02:	853e                	mv	a0,a5
     f04:	62b010ef          	jal	ra,2d2e <__floatsidf>
     f08:	678d                	lui	a5,0x3
     f0a:	0b07a603          	lw	a2,176(a5) # 30b0 <__clzsi2+0x74>
     f0e:	0b47a683          	lw	a3,180(a5)
     f12:	16d010ef          	jal	ra,287e <__muldf3>
     f16:	87aa                	mv	a5,a0
     f18:	882e                	mv	a6,a1
     f1a:	853e                	mv	a0,a5
     f1c:	85c2                	mv	a1,a6
     f1e:	7b5010ef          	jal	ra,2ed2 <__truncdfsf2>
     f22:	872a                	mv	a4,a0
     f24:	82e1a423          	sw	a4,-2008(gp) # 20000028 <ABB_E31_Amp>
     f28:	4601                	li	a2,0
     f2a:	45ed                	li	a1,27
     f2c:	a9c18513          	addi	a0,gp,-1380 # 2000029c <husart2>
     f30:	3351                	jal	cb4 <ModbusRTU_GetData_U16>
     f32:	87aa                	mv	a5,a0
     f34:	853e                	mv	a0,a5
     f36:	6cf010ef          	jal	ra,2e04 <__floatunsisf>
     f3a:	872a                	mv	a4,a0
     f3c:	82e1a623          	sw	a4,-2004(gp) # 2000002c <ABB_E31_Active_power>
     f40:	4601                	li	a2,0
     f42:	45f5                	li	a1,29
     f44:	a9c18513          	addi	a0,gp,-1380 # 2000029c <husart2>
     f48:	33b5                	jal	cb4 <ModbusRTU_GetData_U16>
     f4a:	87aa                	mv	a5,a0
     f4c:	853e                	mv	a0,a5
     f4e:	5e1010ef          	jal	ra,2d2e <__floatsidf>
     f52:	678d                	lui	a5,0x3
     f54:	0b07a603          	lw	a2,176(a5) # 30b0 <__clzsi2+0x74>
     f58:	0b47a683          	lw	a3,180(a5)
     f5c:	123010ef          	jal	ra,287e <__muldf3>
     f60:	87aa                	mv	a5,a0
     f62:	882e                	mv	a6,a1
     f64:	853e                	mv	a0,a5
     f66:	85c2                	mv	a1,a6
     f68:	76b010ef          	jal	ra,2ed2 <__truncdfsf2>
     f6c:	872a                	mv	a4,a0
     f6e:	82e1a823          	sw	a4,-2000(gp) # 20000030 <ABB_E31_Power_factor>
     f72:	4601                	li	a2,0
     f74:	45fd                	li	a1,31
     f76:	a9c18513          	addi	a0,gp,-1380 # 2000029c <husart2>
     f7a:	3b2d                	jal	cb4 <ModbusRTU_GetData_U16>
     f7c:	87aa                	mv	a5,a0
     f7e:	853e                	mv	a0,a5
     f80:	5af010ef          	jal	ra,2d2e <__floatsidf>
     f84:	678d                	lui	a5,0x3
     f86:	0b07a603          	lw	a2,176(a5) # 30b0 <__clzsi2+0x74>
     f8a:	0b47a683          	lw	a3,180(a5)
     f8e:	0f1010ef          	jal	ra,287e <__muldf3>
     f92:	87aa                	mv	a5,a0
     f94:	882e                	mv	a6,a1
     f96:	853e                	mv	a0,a5
     f98:	85c2                	mv	a1,a6
     f9a:	739010ef          	jal	ra,2ed2 <__truncdfsf2>
     f9e:	872a                	mv	a4,a0
     fa0:	82e1aa23          	sw	a4,-1996(gp) # 20000034 <ABB_E31_Frequency>
     fa4:	4705                	li	a4,1
     fa6:	94e18c23          	sb	a4,-1704(gp) # 20000158 <flags_tx_data_ready>
     faa:	a015                	j	fce <ModbusRTU_response_handler+0x22c>
     fac:	4601                	li	a2,0
     fae:	458d                	li	a1,3
     fb0:	a9c18513          	addi	a0,gp,-1380 # 2000029c <husart2>
     fb4:	3301                	jal	cb4 <ModbusRTU_GetData_U16>
     fb6:	87aa                	mv	a5,a0
     fb8:	01079713          	slli	a4,a5,0x10
     fbc:	8741                	srai	a4,a4,0x10
     fbe:	82e19c23          	sh	a4,-1992(gp) # 20000038 <ABB_E31_Temperature>
     fc2:	95818793          	addi	a5,gp,-1704 # 20000158 <flags_tx_data_ready>
     fc6:	4705                	li	a4,1
     fc8:	b398                	sb	a4,1(a5)
     fca:	a011                	j	fce <ModbusRTU_response_handler+0x22c>
     fcc:	0001                	nop
     fce:	0001                	nop
     fd0:	40f2                	lw	ra,28(sp)
     fd2:	4462                	lw	s0,24(sp)
     fd4:	6105                	addi	sp,sp,32
     fd6:	8082                	ret

00000fd8 <ModbusRTU_Master_pool>:
     fd8:	1141                	addi	sp,sp,-16
     fda:	c622                	sw	s0,12(sp)
     fdc:	0800                	addi	s0,sp,16
     fde:	8511c783          	lbu	a5,-1967(gp) # 20000051 <flag_ModbusRTU_block>
     fe2:	0017c793          	xori	a5,a5,1
     fe6:	0ff7f793          	andi	a5,a5,255
     fea:	cbad                	beqz	a5,105c <ModbusRTU_Master_pool+0x84>
     fec:	8481a783          	lw	a5,-1976(gp) # 20000048 <ModbusRTU_Timeout>
     ff0:	c799                	beqz	a5,ffe <ModbusRTU_Master_pool+0x26>
     ff2:	8481a783          	lw	a5,-1976(gp) # 20000048 <ModbusRTU_Timeout>
     ff6:	fff78713          	addi	a4,a5,-1
     ffa:	84e1a423          	sw	a4,-1976(gp) # 20000048 <ModbusRTU_Timeout>
     ffe:	8481a783          	lw	a5,-1976(gp) # 20000048 <ModbusRTU_Timeout>
    1002:	efa9                	bnez	a5,105c <ModbusRTU_Master_pool+0x84>
    1004:	84c1a783          	lw	a5,-1972(gp) # 2000004c <ModbusRTU_delay_between_pool>
    1008:	c799                	beqz	a5,1016 <ModbusRTU_Master_pool+0x3e>
    100a:	84c1a783          	lw	a5,-1972(gp) # 2000004c <ModbusRTU_delay_between_pool>
    100e:	fff78713          	addi	a4,a5,-1
    1012:	84e1a623          	sw	a4,-1972(gp) # 2000004c <ModbusRTU_delay_between_pool>
    1016:	84c1a783          	lw	a5,-1972(gp) # 2000004c <ModbusRTU_delay_between_pool>
    101a:	e3a9                	bnez	a5,105c <ModbusRTU_Master_pool+0x84>
    101c:	200007b7          	lui	a5,0x20000
    1020:	0047c783          	lbu	a5,4(a5) # 20000004 <flag_ModbusRTU_request_on>
    1024:	0017c793          	xori	a5,a5,1
    1028:	0ff7f793          	andi	a5,a5,255
    102c:	cb85                	beqz	a5,105c <ModbusRTU_Master_pool+0x84>
    102e:	8501c783          	lbu	a5,-1968(gp) # 20000050 <ModbusRTU_Counter_in_queue>
    1032:	0ff7f793          	andi	a5,a5,255
    1036:	0785                	addi	a5,a5,1
    1038:	0ff7f713          	andi	a4,a5,255
    103c:	84e18823          	sb	a4,-1968(gp) # 20000050 <ModbusRTU_Counter_in_queue>
    1040:	8501c783          	lbu	a5,-1968(gp) # 20000050 <ModbusRTU_Counter_in_queue>
    1044:	0ff7f713          	andi	a4,a5,255
    1048:	4785                	li	a5,1
    104a:	00e7f463          	bgeu	a5,a4,1052 <ModbusRTU_Master_pool+0x7a>
    104e:	84018823          	sb	zero,-1968(gp) # 20000050 <ModbusRTU_Counter_in_queue>
    1052:	200007b7          	lui	a5,0x20000
    1056:	4705                	li	a4,1
    1058:	00e78223          	sb	a4,4(a5) # 20000004 <flag_ModbusRTU_request_on>
    105c:	0001                	nop
    105e:	4432                	lw	s0,12(sp)
    1060:	0141                	addi	sp,sp,16
    1062:	8082                	ret

00001064 <ModbusRTU_Master_pool_run>:
    1064:	1101                	addi	sp,sp,-32
    1066:	ce06                	sw	ra,28(sp)
    1068:	cc22                	sw	s0,24(sp)
    106a:	1000                	addi	s0,sp,32
    106c:	200007b7          	lui	a5,0x20000
    1070:	0047c783          	lbu	a5,4(a5) # 20000004 <flag_ModbusRTU_request_on>
    1074:	cf99                	beqz	a5,1092 <ModbusRTU_Master_pool_run+0x2e>
    1076:	8501c783          	lbu	a5,-1968(gp) # 20000050 <ModbusRTU_Counter_in_queue>
    107a:	0ff7f793          	andi	a5,a5,255
    107e:	853e                	mv	a0,a5
    1080:	31f9                	jal	d4e <ModbusRTU_request_queue>
    1082:	200007b7          	lui	a5,0x20000
    1086:	00078223          	sb	zero,4(a5) # 20000004 <flag_ModbusRTU_request_on>
    108a:	3e800713          	li	a4,1000
    108e:	84e1a423          	sw	a4,-1976(gp) # 20000048 <ModbusRTU_Timeout>
    1092:	8511c783          	lbu	a5,-1967(gp) # 20000051 <flag_ModbusRTU_block>
    1096:	cbd1                	beqz	a5,112a <ModbusRTU_Master_pool_run+0xc6>
    1098:	a9c18793          	addi	a5,gp,-1380 # 2000029c <husart2>
    109c:	1027d783          	lhu	a5,258(a5)
    10a0:	c3d9                	beqz	a5,1126 <ModbusRTU_Master_pool_run+0xc2>
    10a2:	a9c18793          	addi	a5,gp,-1380 # 2000029c <husart2>
    10a6:	1027d783          	lhu	a5,258(a5)
    10aa:	0ff7f793          	andi	a5,a5,255
    10ae:	17f9                	addi	a5,a5,-2
    10b0:	0ff7f793          	andi	a5,a5,255
    10b4:	460d                	li	a2,3
    10b6:	85be                	mv	a1,a5
    10b8:	a9c18513          	addi	a0,gp,-1380 # 2000029c <husart2>
    10bc:	ff4ff0ef          	jal	ra,8b0 <ModbusRTU_CRC16_Calculate>
    10c0:	87aa                	mv	a5,a0
    10c2:	fef41723          	sh	a5,-18(s0)
    10c6:	a9c18793          	addi	a5,gp,-1380 # 2000029c <husart2>
    10ca:	1027d783          	lhu	a5,258(a5)
    10ce:	ffe78713          	addi	a4,a5,-2
    10d2:	a9c18793          	addi	a5,gp,-1380 # 2000029c <husart2>
    10d6:	97ba                	add	a5,a5,a4
    10d8:	239c                	lbu	a5,0(a5)
    10da:	07a2                	slli	a5,a5,0x8
    10dc:	01079713          	slli	a4,a5,0x10
    10e0:	8741                	srai	a4,a4,0x10
    10e2:	a9c18793          	addi	a5,gp,-1380 # 2000029c <husart2>
    10e6:	1027d783          	lhu	a5,258(a5)
    10ea:	fff78693          	addi	a3,a5,-1
    10ee:	a9c18793          	addi	a5,gp,-1380 # 2000029c <husart2>
    10f2:	97b6                	add	a5,a5,a3
    10f4:	239c                	lbu	a5,0(a5)
    10f6:	07c2                	slli	a5,a5,0x10
    10f8:	87c1                	srai	a5,a5,0x10
    10fa:	8fd9                	or	a5,a5,a4
    10fc:	07c2                	slli	a5,a5,0x10
    10fe:	87c1                	srai	a5,a5,0x10
    1100:	fef41623          	sh	a5,-20(s0)
    1104:	fee45703          	lhu	a4,-18(s0)
    1108:	fec45783          	lhu	a5,-20(s0)
    110c:	00f71863          	bne	a4,a5,111c <ModbusRTU_Master_pool_run+0xb8>
    1110:	8501c783          	lbu	a5,-1968(gp) # 20000050 <ModbusRTU_Counter_in_queue>
    1114:	0ff7f793          	andi	a5,a5,255
    1118:	853e                	mv	a0,a5
    111a:	3161                	jal	da2 <ModbusRTU_response_handler>
    111c:	8401a423          	sw	zero,-1976(gp) # 20000048 <ModbusRTU_Timeout>
    1120:	4729                	li	a4,10
    1122:	84e1a623          	sw	a4,-1972(gp) # 2000004c <ModbusRTU_delay_between_pool>
    1126:	840188a3          	sb	zero,-1967(gp) # 20000051 <flag_ModbusRTU_block>
    112a:	0001                	nop
    112c:	40f2                	lw	ra,28(sp)
    112e:	4462                	lw	s0,24(sp)
    1130:	6105                	addi	sp,sp,32
    1132:	8082                	ret

00001134 <Software_timer>:
    1134:	1101                	addi	sp,sp,-32
    1136:	ce22                	sw	s0,28(sp)
    1138:	1000                	addi	s0,sp,32
    113a:	fea42623          	sw	a0,-20(s0)
    113e:	feb42423          	sw	a1,-24(s0)
    1142:	fec42783          	lw	a5,-20(s0)
    1146:	fe842703          	lw	a4,-24(s0)
    114a:	c398                	sw	a4,0(a5)
    114c:	0001                	nop
    114e:	4472                	lw	s0,28(sp)
    1150:	6105                	addi	sp,sp,32
    1152:	8082                	ret

00001154 <Software_timer_check>:
    1154:	1101                	addi	sp,sp,-32
    1156:	ce22                	sw	s0,28(sp)
    1158:	1000                	addi	s0,sp,32
    115a:	fea42623          	sw	a0,-20(s0)
    115e:	fec42783          	lw	a5,-20(s0)
    1162:	439c                	lw	a5,0(a5)
    1164:	cb99                	beqz	a5,117a <Software_timer_check+0x26>
    1166:	fec42783          	lw	a5,-20(s0)
    116a:	439c                	lw	a5,0(a5)
    116c:	fff78713          	addi	a4,a5,-1
    1170:	fec42783          	lw	a5,-20(s0)
    1174:	c398                	sw	a4,0(a5)
    1176:	4785                	li	a5,1
    1178:	a011                	j	117c <Software_timer_check+0x28>
    117a:	4781                	li	a5,0
    117c:	853e                	mv	a0,a5
    117e:	4472                	lw	s0,28(sp)
    1180:	6105                	addi	sp,sp,32
    1182:	8082                	ret

00001184 <SysTick_Handler>:
    1184:	715d                	addi	sp,sp,-80
    1186:	c686                	sw	ra,76(sp)
    1188:	c496                	sw	t0,72(sp)
    118a:	c29a                	sw	t1,68(sp)
    118c:	c09e                	sw	t2,64(sp)
    118e:	de22                	sw	s0,60(sp)
    1190:	dc2a                	sw	a0,56(sp)
    1192:	da2e                	sw	a1,52(sp)
    1194:	d832                	sw	a2,48(sp)
    1196:	d636                	sw	a3,44(sp)
    1198:	d43a                	sw	a4,40(sp)
    119a:	d23e                	sw	a5,36(sp)
    119c:	d042                	sw	a6,32(sp)
    119e:	ce46                	sw	a7,28(sp)
    11a0:	cc72                	sw	t3,24(sp)
    11a2:	ca76                	sw	t4,20(sp)
    11a4:	c87a                	sw	t5,16(sp)
    11a6:	c67e                	sw	t6,12(sp)
    11a8:	0880                	addi	s0,sp,80
    11aa:	e000f7b7          	lui	a5,0xe000f
    11ae:	43d8                	lw	a4,4(a5)
    11b0:	e000f7b7          	lui	a5,0xe000f
    11b4:	9b79                	andi	a4,a4,-2
    11b6:	c3d8                	sw	a4,4(a5)
    11b8:	83c1a783          	lw	a5,-1988(gp) # 2000003c <SysTimer_ms>
    11bc:	00178713          	addi	a4,a5,1 # e000f001 <_eusrstack+0xc000a001>
    11c0:	82e1ae23          	sw	a4,-1988(gp) # 2000003c <SysTimer_ms>
    11c4:	8401a783          	lw	a5,-1984(gp) # 20000040 <Delay_counter_ms>
    11c8:	c799                	beqz	a5,11d6 <SysTick_Handler+0x52>
    11ca:	8401a783          	lw	a5,-1984(gp) # 20000040 <Delay_counter_ms>
    11ce:	fff78713          	addi	a4,a5,-1
    11d2:	84e1a023          	sw	a4,-1984(gp) # 20000040 <Delay_counter_ms>
    11d6:	8441a783          	lw	a5,-1980(gp) # 20000044 <Timeout_counter_ms>
    11da:	c799                	beqz	a5,11e8 <SysTick_Handler+0x64>
    11dc:	8441a783          	lw	a5,-1980(gp) # 20000044 <Timeout_counter_ms>
    11e0:	fff78713          	addi	a4,a5,-1
    11e4:	84e1a223          	sw	a4,-1980(gp) # 20000044 <Timeout_counter_ms>
    11e8:	3bc5                	jal	fd8 <ModbusRTU_Master_pool>
    11ea:	916ff0ef          	jal	ra,300 <ESP8266_Indication_Timer>
    11ee:	85418513          	addi	a0,gp,-1964 # 20000054 <MQTT_Send_Timer>
    11f2:	378d                	jal	1154 <Software_timer_check>
    11f4:	87aa                	mv	a5,a0
    11f6:	0017c793          	xori	a5,a5,1
    11fa:	0ff7f793          	andi	a5,a5,255
    11fe:	c781                	beqz	a5,1206 <SysTick_Handler+0x82>
    1200:	4705                	li	a4,1
    1202:	84e18923          	sb	a4,-1966(gp) # 20000052 <Task1>
    1206:	0001                	nop
    1208:	40b6                	lw	ra,76(sp)
    120a:	42a6                	lw	t0,72(sp)
    120c:	4316                	lw	t1,68(sp)
    120e:	4386                	lw	t2,64(sp)
    1210:	5472                	lw	s0,60(sp)
    1212:	5562                	lw	a0,56(sp)
    1214:	55d2                	lw	a1,52(sp)
    1216:	5642                	lw	a2,48(sp)
    1218:	56b2                	lw	a3,44(sp)
    121a:	5722                	lw	a4,40(sp)
    121c:	5792                	lw	a5,36(sp)
    121e:	5802                	lw	a6,32(sp)
    1220:	48f2                	lw	a7,28(sp)
    1222:	4e62                	lw	t3,24(sp)
    1224:	4ed2                	lw	t4,20(sp)
    1226:	4f42                	lw	t5,16(sp)
    1228:	4fb2                	lw	t6,12(sp)
    122a:	6161                	addi	sp,sp,80
    122c:	30200073          	mret

00001230 <USART1_IRQHandler>:
    1230:	715d                	addi	sp,sp,-80
    1232:	c686                	sw	ra,76(sp)
    1234:	c496                	sw	t0,72(sp)
    1236:	c29a                	sw	t1,68(sp)
    1238:	c09e                	sw	t2,64(sp)
    123a:	de22                	sw	s0,60(sp)
    123c:	dc2a                	sw	a0,56(sp)
    123e:	da2e                	sw	a1,52(sp)
    1240:	d832                	sw	a2,48(sp)
    1242:	d636                	sw	a3,44(sp)
    1244:	d43a                	sw	a4,40(sp)
    1246:	d23e                	sw	a5,36(sp)
    1248:	d042                	sw	a6,32(sp)
    124a:	ce46                	sw	a7,28(sp)
    124c:	cc72                	sw	t3,24(sp)
    124e:	ca76                	sw	t4,20(sp)
    1250:	c87a                	sw	t5,16(sp)
    1252:	c67e                	sw	t6,12(sp)
    1254:	0880                	addi	s0,sp,80
    1256:	400147b7          	lui	a5,0x40014
    125a:	80078793          	addi	a5,a5,-2048 # 40013800 <_eusrstack+0x2000e800>
    125e:	239e                	lhu	a5,0(a5)
    1260:	07c2                	slli	a5,a5,0x10
    1262:	83c1                	srli	a5,a5,0x10
    1264:	0207f793          	andi	a5,a5,32
    1268:	cfa9                	beqz	a5,12c2 <USART1_IRQHandler+0x92>
    126a:	99818793          	addi	a5,gp,-1640 # 20000198 <husart1>
    126e:	1007d703          	lhu	a4,256(a5)
    1272:	0ff00793          	li	a5,255
    1276:	04e7e263          	bltu	a5,a4,12ba <USART1_IRQHandler+0x8a>
    127a:	400147b7          	lui	a5,0x40014
    127e:	80078793          	addi	a5,a5,-2048 # 40013800 <_eusrstack+0x2000e800>
    1282:	23de                	lhu	a5,4(a5)
    1284:	01079713          	slli	a4,a5,0x10
    1288:	8341                	srli	a4,a4,0x10
    128a:	99818793          	addi	a5,gp,-1640 # 20000198 <husart1>
    128e:	1007d783          	lhu	a5,256(a5)
    1292:	86be                	mv	a3,a5
    1294:	0ff77713          	andi	a4,a4,255
    1298:	99818793          	addi	a5,gp,-1640 # 20000198 <husart1>
    129c:	97b6                	add	a5,a5,a3
    129e:	a398                	sb	a4,0(a5)
    12a0:	99818793          	addi	a5,gp,-1640 # 20000198 <husart1>
    12a4:	1007d783          	lhu	a5,256(a5)
    12a8:	0785                	addi	a5,a5,1
    12aa:	01079713          	slli	a4,a5,0x10
    12ae:	8341                	srli	a4,a4,0x10
    12b0:	99818793          	addi	a5,gp,-1640 # 20000198 <husart1>
    12b4:	10e79023          	sh	a4,256(a5)
    12b8:	a029                	j	12c2 <USART1_IRQHandler+0x92>
    12ba:	99818793          	addi	a5,gp,-1640 # 20000198 <husart1>
    12be:	10079023          	sh	zero,256(a5)
    12c2:	400147b7          	lui	a5,0x40014
    12c6:	80078793          	addi	a5,a5,-2048 # 40013800 <_eusrstack+0x2000e800>
    12ca:	239e                	lhu	a5,0(a5)
    12cc:	07c2                	slli	a5,a5,0x10
    12ce:	83c1                	srli	a5,a5,0x10
    12d0:	8bc1                	andi	a5,a5,16
    12d2:	c3a9                	beqz	a5,1314 <USART1_IRQHandler+0xe4>
    12d4:	400147b7          	lui	a5,0x40014
    12d8:	80078793          	addi	a5,a5,-2048 # 40013800 <_eusrstack+0x2000e800>
    12dc:	23de                	lhu	a5,4(a5)
    12de:	99818793          	addi	a5,gp,-1640 # 20000198 <husart1>
    12e2:	1007d703          	lhu	a4,256(a5)
    12e6:	99818793          	addi	a5,gp,-1640 # 20000198 <husart1>
    12ea:	10e79123          	sh	a4,258(a5)
    12ee:	99818793          	addi	a5,gp,-1640 # 20000198 <husart1>
    12f2:	10079023          	sh	zero,256(a5)
    12f6:	84cff0ef          	jal	ra,342 <UART_MQTT_Check_net>
    12fa:	99818513          	addi	a0,gp,-1640 # 20000198 <husart1>
    12fe:	a42ff0ef          	jal	ra,540 <UART_MQTT_Checksumm_validation>
    1302:	87aa                	mv	a5,a0
    1304:	cb81                	beqz	a5,1314 <USART1_IRQHandler+0xe4>
    1306:	80f1c703          	lbu	a4,-2033(gp) # 2000000f <NETWORK_Status>
    130a:	478d                	li	a5,3
    130c:	00f71463          	bne	a4,a5,1314 <USART1_IRQHandler+0xe4>
    1310:	4c6010ef          	jal	ra,27d6 <MQTT_Reveieve>
    1314:	0001                	nop
    1316:	40b6                	lw	ra,76(sp)
    1318:	42a6                	lw	t0,72(sp)
    131a:	4316                	lw	t1,68(sp)
    131c:	4386                	lw	t2,64(sp)
    131e:	5472                	lw	s0,60(sp)
    1320:	5562                	lw	a0,56(sp)
    1322:	55d2                	lw	a1,52(sp)
    1324:	5642                	lw	a2,48(sp)
    1326:	56b2                	lw	a3,44(sp)
    1328:	5722                	lw	a4,40(sp)
    132a:	5792                	lw	a5,36(sp)
    132c:	5802                	lw	a6,32(sp)
    132e:	48f2                	lw	a7,28(sp)
    1330:	4e62                	lw	t3,24(sp)
    1332:	4ed2                	lw	t4,20(sp)
    1334:	4f42                	lw	t5,16(sp)
    1336:	4fb2                	lw	t6,12(sp)
    1338:	6161                	addi	sp,sp,80
    133a:	30200073          	mret

0000133e <USART2_IRQHandler>:
    133e:	1141                	addi	sp,sp,-16
    1340:	c622                	sw	s0,12(sp)
    1342:	c436                	sw	a3,8(sp)
    1344:	c23a                	sw	a4,4(sp)
    1346:	c03e                	sw	a5,0(sp)
    1348:	0800                	addi	s0,sp,16
    134a:	400047b7          	lui	a5,0x40004
    134e:	40078793          	addi	a5,a5,1024 # 40004400 <_eusrstack+0x1ffff400>
    1352:	239e                	lhu	a5,0(a5)
    1354:	07c2                	slli	a5,a5,0x10
    1356:	83c1                	srli	a5,a5,0x10
    1358:	0207f793          	andi	a5,a5,32
    135c:	cfa9                	beqz	a5,13b6 <USART2_IRQHandler+0x78>
    135e:	a9c18793          	addi	a5,gp,-1380 # 2000029c <husart2>
    1362:	1007d703          	lhu	a4,256(a5)
    1366:	0ff00793          	li	a5,255
    136a:	04e7e263          	bltu	a5,a4,13ae <USART2_IRQHandler+0x70>
    136e:	400047b7          	lui	a5,0x40004
    1372:	40078793          	addi	a5,a5,1024 # 40004400 <_eusrstack+0x1ffff400>
    1376:	23de                	lhu	a5,4(a5)
    1378:	01079713          	slli	a4,a5,0x10
    137c:	8341                	srli	a4,a4,0x10
    137e:	a9c18793          	addi	a5,gp,-1380 # 2000029c <husart2>
    1382:	1007d783          	lhu	a5,256(a5)
    1386:	86be                	mv	a3,a5
    1388:	0ff77713          	andi	a4,a4,255
    138c:	a9c18793          	addi	a5,gp,-1380 # 2000029c <husart2>
    1390:	97b6                	add	a5,a5,a3
    1392:	a398                	sb	a4,0(a5)
    1394:	a9c18793          	addi	a5,gp,-1380 # 2000029c <husart2>
    1398:	1007d783          	lhu	a5,256(a5)
    139c:	0785                	addi	a5,a5,1
    139e:	01079713          	slli	a4,a5,0x10
    13a2:	8341                	srli	a4,a4,0x10
    13a4:	a9c18793          	addi	a5,gp,-1380 # 2000029c <husart2>
    13a8:	10e79023          	sh	a4,256(a5)
    13ac:	a029                	j	13b6 <USART2_IRQHandler+0x78>
    13ae:	a9c18793          	addi	a5,gp,-1380 # 2000029c <husart2>
    13b2:	10079023          	sh	zero,256(a5)
    13b6:	400007b7          	lui	a5,0x40000
    13ba:	40078793          	addi	a5,a5,1024 # 40000400 <_eusrstack+0x1fffb400>
    13be:	02079223          	sh	zero,36(a5)
    13c2:	400007b7          	lui	a5,0x40000
    13c6:	40078793          	addi	a5,a5,1024 # 40000400 <_eusrstack+0x1fffb400>
    13ca:	239e                	lhu	a5,0(a5)
    13cc:	01079713          	slli	a4,a5,0x10
    13d0:	8341                	srli	a4,a4,0x10
    13d2:	400007b7          	lui	a5,0x40000
    13d6:	40078793          	addi	a5,a5,1024 # 40000400 <_eusrstack+0x1fffb400>
    13da:	00176713          	ori	a4,a4,1
    13de:	0742                	slli	a4,a4,0x10
    13e0:	8341                	srli	a4,a4,0x10
    13e2:	a39a                	sh	a4,0(a5)
    13e4:	0001                	nop
    13e6:	4432                	lw	s0,12(sp)
    13e8:	46a2                	lw	a3,8(sp)
    13ea:	4712                	lw	a4,4(sp)
    13ec:	4782                	lw	a5,0(sp)
    13ee:	0141                	addi	sp,sp,16
    13f0:	30200073          	mret

000013f4 <USART3_IRQHandler>:
    13f4:	1141                	addi	sp,sp,-16
    13f6:	c622                	sw	s0,12(sp)
    13f8:	c436                	sw	a3,8(sp)
    13fa:	c23a                	sw	a4,4(sp)
    13fc:	c03e                	sw	a5,0(sp)
    13fe:	0800                	addi	s0,sp,16
    1400:	400057b7          	lui	a5,0x40005
    1404:	80078793          	addi	a5,a5,-2048 # 40004800 <_eusrstack+0x1ffff800>
    1408:	239e                	lhu	a5,0(a5)
    140a:	07c2                	slli	a5,a5,0x10
    140c:	83c1                	srli	a5,a5,0x10
    140e:	0207f793          	andi	a5,a5,32
    1412:	cfa9                	beqz	a5,146c <USART3_IRQHandler+0x78>
    1414:	ba018793          	addi	a5,gp,-1120 # 200003a0 <husart3>
    1418:	1007d703          	lhu	a4,256(a5)
    141c:	0ff00793          	li	a5,255
    1420:	04e7e263          	bltu	a5,a4,1464 <USART3_IRQHandler+0x70>
    1424:	400057b7          	lui	a5,0x40005
    1428:	80078793          	addi	a5,a5,-2048 # 40004800 <_eusrstack+0x1ffff800>
    142c:	23de                	lhu	a5,4(a5)
    142e:	01079713          	slli	a4,a5,0x10
    1432:	8341                	srli	a4,a4,0x10
    1434:	ba018793          	addi	a5,gp,-1120 # 200003a0 <husart3>
    1438:	1007d783          	lhu	a5,256(a5)
    143c:	86be                	mv	a3,a5
    143e:	0ff77713          	andi	a4,a4,255
    1442:	ba018793          	addi	a5,gp,-1120 # 200003a0 <husart3>
    1446:	97b6                	add	a5,a5,a3
    1448:	a398                	sb	a4,0(a5)
    144a:	ba018793          	addi	a5,gp,-1120 # 200003a0 <husart3>
    144e:	1007d783          	lhu	a5,256(a5)
    1452:	0785                	addi	a5,a5,1
    1454:	01079713          	slli	a4,a5,0x10
    1458:	8341                	srli	a4,a4,0x10
    145a:	ba018793          	addi	a5,gp,-1120 # 200003a0 <husart3>
    145e:	10e79023          	sh	a4,256(a5)
    1462:	a029                	j	146c <USART3_IRQHandler+0x78>
    1464:	ba018793          	addi	a5,gp,-1120 # 200003a0 <husart3>
    1468:	10079023          	sh	zero,256(a5)
    146c:	400057b7          	lui	a5,0x40005
    1470:	80078793          	addi	a5,a5,-2048 # 40004800 <_eusrstack+0x1ffff800>
    1474:	239e                	lhu	a5,0(a5)
    1476:	07c2                	slli	a5,a5,0x10
    1478:	83c1                	srli	a5,a5,0x10
    147a:	8bc1                	andi	a5,a5,16
    147c:	c395                	beqz	a5,14a0 <USART3_IRQHandler+0xac>
    147e:	400057b7          	lui	a5,0x40005
    1482:	80078793          	addi	a5,a5,-2048 # 40004800 <_eusrstack+0x1ffff800>
    1486:	23de                	lhu	a5,4(a5)
    1488:	ba018793          	addi	a5,gp,-1120 # 200003a0 <husart3>
    148c:	1007d703          	lhu	a4,256(a5)
    1490:	ba018793          	addi	a5,gp,-1120 # 200003a0 <husart3>
    1494:	10e79123          	sh	a4,258(a5)
    1498:	ba018793          	addi	a5,gp,-1120 # 200003a0 <husart3>
    149c:	10079023          	sh	zero,256(a5)
    14a0:	0001                	nop
    14a2:	4432                	lw	s0,12(sp)
    14a4:	46a2                	lw	a3,8(sp)
    14a6:	4712                	lw	a4,4(sp)
    14a8:	4782                	lw	a5,0(sp)
    14aa:	0141                	addi	sp,sp,16
    14ac:	30200073          	mret

000014b0 <TIM3_IRQHandler>:
    14b0:	1141                	addi	sp,sp,-16
    14b2:	c622                	sw	s0,12(sp)
    14b4:	c43a                	sw	a4,8(sp)
    14b6:	c23e                	sw	a5,4(sp)
    14b8:	0800                	addi	s0,sp,16
    14ba:	400007b7          	lui	a5,0x40000
    14be:	40078793          	addi	a5,a5,1024 # 40000400 <_eusrstack+0x1fffb400>
    14c2:	2b9e                	lhu	a5,16(a5)
    14c4:	07c2                	slli	a5,a5,0x10
    14c6:	83c1                	srli	a5,a5,0x10
    14c8:	8b85                	andi	a5,a5,1
    14ca:	c7a9                	beqz	a5,1514 <TIM3_IRQHandler+0x64>
    14cc:	400007b7          	lui	a5,0x40000
    14d0:	40078793          	addi	a5,a5,1024 # 40000400 <_eusrstack+0x1fffb400>
    14d4:	2b9e                	lhu	a5,16(a5)
    14d6:	01079713          	slli	a4,a5,0x10
    14da:	8341                	srli	a4,a4,0x10
    14dc:	400007b7          	lui	a5,0x40000
    14e0:	40078793          	addi	a5,a5,1024 # 40000400 <_eusrstack+0x1fffb400>
    14e4:	9b79                	andi	a4,a4,-2
    14e6:	0742                	slli	a4,a4,0x10
    14e8:	8341                	srli	a4,a4,0x10
    14ea:	ab9a                	sh	a4,16(a5)
    14ec:	400047b7          	lui	a5,0x40004
    14f0:	40078793          	addi	a5,a5,1024 # 40004400 <_eusrstack+0x1ffff400>
    14f4:	23de                	lhu	a5,4(a5)
    14f6:	a9c18793          	addi	a5,gp,-1380 # 2000029c <husart2>
    14fa:	1007d703          	lhu	a4,256(a5)
    14fe:	a9c18793          	addi	a5,gp,-1380 # 2000029c <husart2>
    1502:	10e79123          	sh	a4,258(a5)
    1506:	a9c18793          	addi	a5,gp,-1380 # 2000029c <husart2>
    150a:	10079023          	sh	zero,256(a5)
    150e:	4705                	li	a4,1
    1510:	84e188a3          	sb	a4,-1967(gp) # 20000051 <flag_ModbusRTU_block>
    1514:	0001                	nop
    1516:	4432                	lw	s0,12(sp)
    1518:	4722                	lw	a4,8(sp)
    151a:	4792                	lw	a5,4(sp)
    151c:	0141                	addi	sp,sp,16
    151e:	30200073          	mret

00001522 <TIM1_UP_IRQHandler>:
    1522:	1141                	addi	sp,sp,-16
    1524:	c622                	sw	s0,12(sp)
    1526:	c43a                	sw	a4,8(sp)
    1528:	c23e                	sw	a5,4(sp)
    152a:	0800                	addi	s0,sp,16
    152c:	400137b7          	lui	a5,0x40013
    1530:	c0078793          	addi	a5,a5,-1024 # 40012c00 <_eusrstack+0x2000dc00>
    1534:	2b9e                	lhu	a5,16(a5)
    1536:	07c2                	slli	a5,a5,0x10
    1538:	83c1                	srli	a5,a5,0x10
    153a:	8b85                	andi	a5,a5,1
    153c:	c38d                	beqz	a5,155e <TIM1_UP_IRQHandler+0x3c>
    153e:	400137b7          	lui	a5,0x40013
    1542:	c0078793          	addi	a5,a5,-1024 # 40012c00 <_eusrstack+0x2000dc00>
    1546:	2b9e                	lhu	a5,16(a5)
    1548:	01079713          	slli	a4,a5,0x10
    154c:	8341                	srli	a4,a4,0x10
    154e:	400137b7          	lui	a5,0x40013
    1552:	c0078793          	addi	a5,a5,-1024 # 40012c00 <_eusrstack+0x2000dc00>
    1556:	9b79                	andi	a4,a4,-2
    1558:	0742                	slli	a4,a4,0x10
    155a:	8341                	srli	a4,a4,0x10
    155c:	ab9a                	sh	a4,16(a5)
    155e:	0001                	nop
    1560:	4432                	lw	s0,12(sp)
    1562:	4722                	lw	a4,8(sp)
    1564:	4792                	lw	a5,4(sp)
    1566:	0141                	addi	sp,sp,16
    1568:	30200073          	mret

0000156c <RVMSIS_Debug_init>:
    156c:	1141                	addi	sp,sp,-16
    156e:	c622                	sw	s0,12(sp)
    1570:	0800                	addi	s0,sp,16
    1572:	400217b7          	lui	a5,0x40021
    1576:	4f98                	lw	a4,24(a5)
    1578:	400217b7          	lui	a5,0x40021
    157c:	00476713          	ori	a4,a4,4
    1580:	cf98                	sw	a4,24(a5)
    1582:	400217b7          	lui	a5,0x40021
    1586:	4f98                	lw	a4,24(a5)
    1588:	400217b7          	lui	a5,0x40021
    158c:	00176713          	ori	a4,a4,1
    1590:	cf98                	sw	a4,24(a5)
    1592:	400107b7          	lui	a5,0x40010
    1596:	43d4                	lw	a3,4(a5)
    1598:	400107b7          	lui	a5,0x40010
    159c:	f9000737          	lui	a4,0xf9000
    15a0:	177d                	addi	a4,a4,-1
    15a2:	8f75                	and	a4,a4,a3
    15a4:	c3d8                	sw	a4,4(a5)
    15a6:	400117b7          	lui	a5,0x40011
    15aa:	80078793          	addi	a5,a5,-2048 # 40010800 <_eusrstack+0x2000b800>
    15ae:	6759                	lui	a4,0x16
    15b0:	cf98                	sw	a4,24(a5)
    15b2:	400117b7          	lui	a5,0x40011
    15b6:	80078793          	addi	a5,a5,-2048 # 40010800 <_eusrstack+0x2000b800>
    15ba:	6719                	lui	a4,0x6
    15bc:	cf98                	sw	a4,24(a5)
    15be:	400117b7          	lui	a5,0x40011
    15c2:	80078793          	addi	a5,a5,-2048 # 40010800 <_eusrstack+0x2000b800>
    15c6:	6759                	lui	a4,0x16
    15c8:	cf98                	sw	a4,24(a5)
    15ca:	400117b7          	lui	a5,0x40011
    15ce:	80078793          	addi	a5,a5,-2048 # 40010800 <_eusrstack+0x2000b800>
    15d2:	4f9c                	lw	a5,24(a5)
    15d4:	0001                	nop
    15d6:	4432                	lw	s0,12(sp)
    15d8:	0141                	addi	sp,sp,16
    15da:	8082                	ret

000015dc <RVMSIS_RCC_SystemClock_144MHz>:
    15dc:	1141                	addi	sp,sp,-16
    15de:	c622                	sw	s0,12(sp)
    15e0:	0800                	addi	s0,sp,16
    15e2:	400217b7          	lui	a5,0x40021
    15e6:	4398                	lw	a4,0(a5)
    15e8:	400217b7          	lui	a5,0x40021
    15ec:	00176713          	ori	a4,a4,1
    15f0:	c398                	sw	a4,0(a5)
    15f2:	0001                	nop
    15f4:	400217b7          	lui	a5,0x40021
    15f8:	439c                	lw	a5,0(a5)
    15fa:	8b89                	andi	a5,a5,2
    15fc:	dfe5                	beqz	a5,15f4 <RVMSIS_RCC_SystemClock_144MHz+0x18>
    15fe:	400217b7          	lui	a5,0x40021
    1602:	4394                	lw	a3,0(a5)
    1604:	400217b7          	lui	a5,0x40021
    1608:	fffc0737          	lui	a4,0xfffc0
    160c:	177d                	addi	a4,a4,-1
    160e:	8f75                	and	a4,a4,a3
    1610:	c398                	sw	a4,0(a5)
    1612:	400217b7          	lui	a5,0x40021
    1616:	4394                	lw	a3,0(a5)
    1618:	400217b7          	lui	a5,0x40021
    161c:	7741                	lui	a4,0xffff0
    161e:	177d                	addi	a4,a4,-1
    1620:	8f75                	and	a4,a4,a3
    1622:	c398                	sw	a4,0(a5)
    1624:	400217b7          	lui	a5,0x40021
    1628:	4394                	lw	a3,0(a5)
    162a:	400217b7          	lui	a5,0x40021
    162e:	fff80737          	lui	a4,0xfff80
    1632:	177d                	addi	a4,a4,-1
    1634:	8f75                	and	a4,a4,a3
    1636:	c398                	sw	a4,0(a5)
    1638:	400217b7          	lui	a5,0x40021
    163c:	43d8                	lw	a4,4(a5)
    163e:	400217b7          	lui	a5,0x40021
    1642:	9b71                	andi	a4,a4,-4
    1644:	c3d8                	sw	a4,4(a5)
    1646:	400217b7          	lui	a5,0x40021
    164a:	4394                	lw	a3,0(a5)
    164c:	400217b7          	lui	a5,0x40021
    1650:	ff000737          	lui	a4,0xff000
    1654:	177d                	addi	a4,a4,-1
    1656:	8f75                	and	a4,a4,a3
    1658:	c398                	sw	a4,0(a5)
    165a:	400217b7          	lui	a5,0x40021
    165e:	43dc                	lw	a5,4(a5)
    1660:	f0f7f713          	andi	a4,a5,-241
    1664:	400217b7          	lui	a5,0x40021
    1668:	08076713          	ori	a4,a4,128
    166c:	c3d8                	sw	a4,4(a5)
    166e:	400227b7          	lui	a5,0x40022
    1672:	4b94                	lw	a3,16(a5)
    1674:	400227b7          	lui	a5,0x40022
    1678:	fe000737          	lui	a4,0xfe000
    167c:	177d                	addi	a4,a4,-1
    167e:	8f75                	and	a4,a4,a3
    1680:	cb98                	sw	a4,16(a5)
    1682:	400217b7          	lui	a5,0x40021
    1686:	43dc                	lw	a5,4(a5)
    1688:	8ff7f713          	andi	a4,a5,-1793
    168c:	400217b7          	lui	a5,0x40021
    1690:	40076713          	ori	a4,a4,1024
    1694:	c3d8                	sw	a4,4(a5)
    1696:	400217b7          	lui	a5,0x40021
    169a:	43d4                	lw	a3,4(a5)
    169c:	400217b7          	lui	a5,0x40021
    16a0:	7771                	lui	a4,0xffffc
    16a2:	7ff70713          	addi	a4,a4,2047 # ffffc7ff <_eusrstack+0xdfff77ff>
    16a6:	8f75                	and	a4,a4,a3
    16a8:	c3d8                	sw	a4,4(a5)
    16aa:	400217b7          	lui	a5,0x40021
    16ae:	43d8                	lw	a4,4(a5)
    16b0:	77d1                	lui	a5,0xffff4
    16b2:	17fd                	addi	a5,a5,-1
    16b4:	00f776b3          	and	a3,a4,a5
    16b8:	400217b7          	lui	a5,0x40021
    16bc:	6721                	lui	a4,0x8
    16be:	8f55                	or	a4,a4,a3
    16c0:	c3d8                	sw	a4,4(a5)
    16c2:	400247b7          	lui	a5,0x40024
    16c6:	80078793          	addi	a5,a5,-2048 # 40023800 <_eusrstack+0x2001e800>
    16ca:	4398                	lw	a4,0(a5)
    16cc:	400247b7          	lui	a5,0x40024
    16d0:	80078793          	addi	a5,a5,-2048 # 40023800 <_eusrstack+0x2001e800>
    16d4:	01076713          	ori	a4,a4,16
    16d8:	c398                	sw	a4,0(a5)
    16da:	400217b7          	lui	a5,0x40021
    16de:	43d4                	lw	a3,4(a5)
    16e0:	400217b7          	lui	a5,0x40021
    16e4:	7741                	lui	a4,0xffff0
    16e6:	177d                	addi	a4,a4,-1
    16e8:	8f75                	and	a4,a4,a3
    16ea:	c3d8                	sw	a4,4(a5)
    16ec:	400217b7          	lui	a5,0x40021
    16f0:	43d4                	lw	a3,4(a5)
    16f2:	400217b7          	lui	a5,0x40021
    16f6:	003c0737          	lui	a4,0x3c0
    16fa:	8f55                	or	a4,a4,a3
    16fc:	c3d8                	sw	a4,4(a5)
    16fe:	400217b7          	lui	a5,0x40021
    1702:	43d8                	lw	a4,4(a5)
    1704:	ff4007b7          	lui	a5,0xff400
    1708:	17fd                	addi	a5,a5,-1
    170a:	00f776b3          	and	a3,a4,a5
    170e:	400217b7          	lui	a5,0x40021
    1712:	00800737          	lui	a4,0x800
    1716:	8f55                	or	a4,a4,a3
    1718:	c3d8                	sw	a4,4(a5)
    171a:	400217b7          	lui	a5,0x40021
    171e:	4394                	lw	a3,0(a5)
    1720:	400217b7          	lui	a5,0x40021
    1724:	01000737          	lui	a4,0x1000
    1728:	8f55                	or	a4,a4,a3
    172a:	c398                	sw	a4,0(a5)
    172c:	400217b7          	lui	a5,0x40021
    1730:	43dc                	lw	a5,4(a5)
    1732:	ffc7f713          	andi	a4,a5,-4
    1736:	400217b7          	lui	a5,0x40021
    173a:	00276713          	ori	a4,a4,2
    173e:	c3d8                	sw	a4,4(a5)
    1740:	0001                	nop
    1742:	400217b7          	lui	a5,0x40021
    1746:	4398                	lw	a4,0(a5)
    1748:	020007b7          	lui	a5,0x2000
    174c:	8ff9                	and	a5,a5,a4
    174e:	dbf5                	beqz	a5,1742 <RVMSIS_RCC_SystemClock_144MHz+0x166>
    1750:	0001                	nop
    1752:	4432                	lw	s0,12(sp)
    1754:	0141                	addi	sp,sp,16
    1756:	8082                	ret

00001758 <RVMSIS_SysTick_Timer_init>:
    1758:	1101                	addi	sp,sp,-32
    175a:	ce22                	sw	s0,28(sp)
    175c:	1000                	addi	s0,sp,32
    175e:	e000f7b7          	lui	a5,0xe000f
    1762:	4398                	lw	a4,0(a5)
    1764:	e000f7b7          	lui	a5,0xe000f
    1768:	9b79                	andi	a4,a4,-2
    176a:	c398                	sw	a4,0(a5)
    176c:	e000f7b7          	lui	a5,0xe000f
    1770:	4398                	lw	a4,0(a5)
    1772:	e000f7b7          	lui	a5,0xe000f
    1776:	00276713          	ori	a4,a4,2
    177a:	c398                	sw	a4,0(a5)
    177c:	e000f7b7          	lui	a5,0xe000f
    1780:	4398                	lw	a4,0(a5)
    1782:	e000f7b7          	lui	a5,0xe000f
    1786:	9b6d                	andi	a4,a4,-5
    1788:	c398                	sw	a4,0(a5)
    178a:	e000f7b7          	lui	a5,0xe000f
    178e:	4398                	lw	a4,0(a5)
    1790:	e000f7b7          	lui	a5,0xe000f
    1794:	00876713          	ori	a4,a4,8
    1798:	c398                	sw	a4,0(a5)
    179a:	e000f7b7          	lui	a5,0xe000f
    179e:	4398                	lw	a4,0(a5)
    17a0:	e000f7b7          	lui	a5,0xe000f
    17a4:	01076713          	ori	a4,a4,16
    17a8:	c398                	sw	a4,0(a5)
    17aa:	e000f7b7          	lui	a5,0xe000f
    17ae:	4398                	lw	a4,0(a5)
    17b0:	e000f7b7          	lui	a5,0xe000f
    17b4:	02076713          	ori	a4,a4,32
    17b8:	c398                	sw	a4,0(a5)
    17ba:	e000f737          	lui	a4,0xe000f
    17be:	6789                	lui	a5,0x2
    17c0:	32778793          	addi	a5,a5,807 # 2327 <RVMSIS_USART2_Init+0x115>
    17c4:	4801                	li	a6,0
    17c6:	cb1c                	sw	a5,16(a4)
    17c8:	01072a23          	sw	a6,20(a4) # e000f014 <_eusrstack+0xc000a014>
    17cc:	47b1                	li	a5,12
    17ce:	fef42223          	sw	a5,-28(s0)
    17d2:	fe442783          	lw	a5,-28(s0)
    17d6:	8bfd                	andi	a5,a5,31
    17d8:	4705                	li	a4,1
    17da:	00f716b3          	sll	a3,a4,a5
    17de:	e000e737          	lui	a4,0xe000e
    17e2:	fe442783          	lw	a5,-28(s0)
    17e6:	8395                	srli	a5,a5,0x5
    17e8:	04078793          	addi	a5,a5,64
    17ec:	078a                	slli	a5,a5,0x2
    17ee:	97ba                	add	a5,a5,a4
    17f0:	c394                	sw	a3,0(a5)
    17f2:	47b1                	li	a5,12
    17f4:	fef42623          	sw	a5,-20(s0)
    17f8:	479d                	li	a5,7
    17fa:	fef405a3          	sb	a5,-21(s0)
    17fe:	e000e737          	lui	a4,0xe000e
    1802:	fec42783          	lw	a5,-20(s0)
    1806:	97ba                	add	a5,a5,a4
    1808:	feb44703          	lbu	a4,-21(s0)
    180c:	40e78023          	sb	a4,1024(a5)
    1810:	e000f7b7          	lui	a5,0xe000f
    1814:	4398                	lw	a4,0(a5)
    1816:	e000f7b7          	lui	a5,0xe000f
    181a:	00176713          	ori	a4,a4,1
    181e:	c398                	sw	a4,0(a5)
    1820:	0001                	nop
    1822:	4472                	lw	s0,28(sp)
    1824:	6105                	addi	sp,sp,32
    1826:	8082                	ret

00001828 <Delay_ms>:
    1828:	1101                	addi	sp,sp,-32
    182a:	ce22                	sw	s0,28(sp)
    182c:	1000                	addi	s0,sp,32
    182e:	fea42623          	sw	a0,-20(s0)
    1832:	fec42703          	lw	a4,-20(s0)
    1836:	84e1a023          	sw	a4,-1984(gp) # 20000040 <Delay_counter_ms>
    183a:	0001                	nop
    183c:	8401a783          	lw	a5,-1984(gp) # 20000040 <Delay_counter_ms>
    1840:	fff5                	bnez	a5,183c <Delay_ms+0x14>
    1842:	0001                	nop
    1844:	4472                	lw	s0,28(sp)
    1846:	6105                	addi	sp,sp,32
    1848:	8082                	ret

0000184a <RVMSIS_GPIO_MODE_Set>:
    184a:	7179                	addi	sp,sp,-48
    184c:	d622                	sw	s0,44(sp)
    184e:	1800                	addi	s0,sp,48
    1850:	fca42e23          	sw	a0,-36(s0)
    1854:	87ae                	mv	a5,a1
    1856:	8736                	mv	a4,a3
    1858:	fcf40da3          	sb	a5,-37(s0)
    185c:	87b2                	mv	a5,a2
    185e:	fcf40d23          	sb	a5,-38(s0)
    1862:	87ba                	mv	a5,a4
    1864:	fcf40ca3          	sb	a5,-39(s0)
    1868:	fe0407a3          	sb	zero,-17(s0)
    186c:	fda44783          	lbu	a5,-38(s0)
    1870:	c789                	beqz	a5,187a <RVMSIS_GPIO_MODE_Set+0x30>
    1872:	4705                	li	a4,1
    1874:	02e78e63          	beq	a5,a4,18b0 <RVMSIS_GPIO_MODE_Set+0x66>
    1878:	a8a5                	j	18f0 <RVMSIS_GPIO_MODE_Set+0xa6>
    187a:	fdb44783          	lbu	a5,-37(s0)
    187e:	078a                	slli	a5,a5,0x2
    1880:	fef407a3          	sb	a5,-17(s0)
    1884:	fdc42783          	lw	a5,-36(s0)
    1888:	4398                	lw	a4,0(a5)
    188a:	fef44783          	lbu	a5,-17(s0)
    188e:	468d                	li	a3,3
    1890:	00f697b3          	sll	a5,a3,a5
    1894:	fff7c793          	not	a5,a5
    1898:	8ff9                	and	a5,a5,a4
    189a:	fd944683          	lbu	a3,-39(s0)
    189e:	fef44703          	lbu	a4,-17(s0)
    18a2:	00e69733          	sll	a4,a3,a4
    18a6:	8f5d                	or	a4,a4,a5
    18a8:	fdc42783          	lw	a5,-36(s0)
    18ac:	c398                	sw	a4,0(a5)
    18ae:	a089                	j	18f0 <RVMSIS_GPIO_MODE_Set+0xa6>
    18b0:	fdb44783          	lbu	a5,-37(s0)
    18b4:	17e1                	addi	a5,a5,-8
    18b6:	fcf40da3          	sb	a5,-37(s0)
    18ba:	fdb44783          	lbu	a5,-37(s0)
    18be:	078a                	slli	a5,a5,0x2
    18c0:	fef407a3          	sb	a5,-17(s0)
    18c4:	fdc42783          	lw	a5,-36(s0)
    18c8:	43d8                	lw	a4,4(a5)
    18ca:	fef44783          	lbu	a5,-17(s0)
    18ce:	468d                	li	a3,3
    18d0:	00f697b3          	sll	a5,a3,a5
    18d4:	fff7c793          	not	a5,a5
    18d8:	8ff9                	and	a5,a5,a4
    18da:	fd944683          	lbu	a3,-39(s0)
    18de:	fef44703          	lbu	a4,-17(s0)
    18e2:	00e69733          	sll	a4,a3,a4
    18e6:	8f5d                	or	a4,a4,a5
    18e8:	fdc42783          	lw	a5,-36(s0)
    18ec:	c3d8                	sw	a4,4(a5)
    18ee:	0001                	nop
    18f0:	0001                	nop
    18f2:	5432                	lw	s0,44(sp)
    18f4:	6145                	addi	sp,sp,48
    18f6:	8082                	ret

000018f8 <RVMSIS_GPIO_SPEED_Set>:
    18f8:	7179                	addi	sp,sp,-48
    18fa:	d606                	sw	ra,44(sp)
    18fc:	d422                	sw	s0,40(sp)
    18fe:	1800                	addi	s0,sp,48
    1900:	fca42e23          	sw	a0,-36(s0)
    1904:	87ae                	mv	a5,a1
    1906:	8732                	mv	a4,a2
    1908:	fcf40da3          	sb	a5,-37(s0)
    190c:	87ba                	mv	a5,a4
    190e:	fcf40d23          	sb	a5,-38(s0)
    1912:	fe0407a3          	sb	zero,-17(s0)
    1916:	fdb44703          	lbu	a4,-37(s0)
    191a:	479d                	li	a5,7
    191c:	00e7e563          	bltu	a5,a4,1926 <RVMSIS_GPIO_SPEED_Set+0x2e>
    1920:	fe0407a3          	sb	zero,-17(s0)
    1924:	a021                	j	192c <RVMSIS_GPIO_SPEED_Set+0x34>
    1926:	4785                	li	a5,1
    1928:	fef407a3          	sb	a5,-17(s0)
    192c:	fda44783          	lbu	a5,-38(s0)
    1930:	ef81                	bnez	a5,1948 <RVMSIS_GPIO_SPEED_Set+0x50>
    1932:	fef44703          	lbu	a4,-17(s0)
    1936:	fdb44783          	lbu	a5,-37(s0)
    193a:	4681                	li	a3,0
    193c:	863a                	mv	a2,a4
    193e:	85be                	mv	a1,a5
    1940:	fdc42503          	lw	a0,-36(s0)
    1944:	3719                	jal	184a <RVMSIS_GPIO_MODE_Set>
    1946:	a085                	j	19a6 <RVMSIS_GPIO_SPEED_Set+0xae>
    1948:	fda44703          	lbu	a4,-38(s0)
    194c:	4785                	li	a5,1
    194e:	00f71d63          	bne	a4,a5,1968 <RVMSIS_GPIO_SPEED_Set+0x70>
    1952:	fef44703          	lbu	a4,-17(s0)
    1956:	fdb44783          	lbu	a5,-37(s0)
    195a:	4685                	li	a3,1
    195c:	863a                	mv	a2,a4
    195e:	85be                	mv	a1,a5
    1960:	fdc42503          	lw	a0,-36(s0)
    1964:	35dd                	jal	184a <RVMSIS_GPIO_MODE_Set>
    1966:	a081                	j	19a6 <RVMSIS_GPIO_SPEED_Set+0xae>
    1968:	fda44703          	lbu	a4,-38(s0)
    196c:	4789                	li	a5,2
    196e:	00f71d63          	bne	a4,a5,1988 <RVMSIS_GPIO_SPEED_Set+0x90>
    1972:	fef44703          	lbu	a4,-17(s0)
    1976:	fdb44783          	lbu	a5,-37(s0)
    197a:	4689                	li	a3,2
    197c:	863a                	mv	a2,a4
    197e:	85be                	mv	a1,a5
    1980:	fdc42503          	lw	a0,-36(s0)
    1984:	35d9                	jal	184a <RVMSIS_GPIO_MODE_Set>
    1986:	a005                	j	19a6 <RVMSIS_GPIO_SPEED_Set+0xae>
    1988:	fda44703          	lbu	a4,-38(s0)
    198c:	478d                	li	a5,3
    198e:	00f71c63          	bne	a4,a5,19a6 <RVMSIS_GPIO_SPEED_Set+0xae>
    1992:	fef44703          	lbu	a4,-17(s0)
    1996:	fdb44783          	lbu	a5,-37(s0)
    199a:	468d                	li	a3,3
    199c:	863a                	mv	a2,a4
    199e:	85be                	mv	a1,a5
    19a0:	fdc42503          	lw	a0,-36(s0)
    19a4:	355d                	jal	184a <RVMSIS_GPIO_MODE_Set>
    19a6:	0001                	nop
    19a8:	50b2                	lw	ra,44(sp)
    19aa:	5422                	lw	s0,40(sp)
    19ac:	6145                	addi	sp,sp,48
    19ae:	8082                	ret

000019b0 <RVMSIS_GPIO_CNF_Set>:
    19b0:	1101                	addi	sp,sp,-32
    19b2:	ce22                	sw	s0,28(sp)
    19b4:	1000                	addi	s0,sp,32
    19b6:	fea42623          	sw	a0,-20(s0)
    19ba:	87ae                	mv	a5,a1
    19bc:	8732                	mv	a4,a2
    19be:	fed42223          	sw	a3,-28(s0)
    19c2:	fef405a3          	sb	a5,-21(s0)
    19c6:	87ba                	mv	a5,a4
    19c8:	fef40523          	sb	a5,-22(s0)
    19cc:	feb44783          	lbu	a5,-21(s0)
    19d0:	c789                	beqz	a5,19da <RVMSIS_GPIO_CNF_Set+0x2a>
    19d2:	4705                	li	a4,1
    19d4:	02e78d63          	beq	a5,a4,1a0e <RVMSIS_GPIO_CNF_Set+0x5e>
    19d8:	a09d                	j	1a3e <RVMSIS_GPIO_CNF_Set+0x8e>
    19da:	fec42783          	lw	a5,-20(s0)
    19de:	4398                	lw	a4,0(a5)
    19e0:	fe442783          	lw	a5,-28(s0)
    19e4:	239c                	lbu	a5,0(a5)
    19e6:	86be                	mv	a3,a5
    19e8:	478d                	li	a5,3
    19ea:	00d797b3          	sll	a5,a5,a3
    19ee:	fff7c793          	not	a5,a5
    19f2:	8ff9                	and	a5,a5,a4
    19f4:	fea44703          	lbu	a4,-22(s0)
    19f8:	fe442683          	lw	a3,-28(s0)
    19fc:	2294                	lbu	a3,0(a3)
    19fe:	00d71733          	sll	a4,a4,a3
    1a02:	8f5d                	or	a4,a4,a5
    1a04:	fec42783          	lw	a5,-20(s0)
    1a08:	c398                	sw	a4,0(a5)
    1a0a:	0001                	nop
    1a0c:	a80d                	j	1a3e <RVMSIS_GPIO_CNF_Set+0x8e>
    1a0e:	fec42783          	lw	a5,-20(s0)
    1a12:	43d8                	lw	a4,4(a5)
    1a14:	fe442783          	lw	a5,-28(s0)
    1a18:	239c                	lbu	a5,0(a5)
    1a1a:	86be                	mv	a3,a5
    1a1c:	478d                	li	a5,3
    1a1e:	00d797b3          	sll	a5,a5,a3
    1a22:	fff7c793          	not	a5,a5
    1a26:	8ff9                	and	a5,a5,a4
    1a28:	fea44703          	lbu	a4,-22(s0)
    1a2c:	fe442683          	lw	a3,-28(s0)
    1a30:	2294                	lbu	a3,0(a3)
    1a32:	00d71733          	sll	a4,a4,a3
    1a36:	8f5d                	or	a4,a4,a5
    1a38:	fec42783          	lw	a5,-20(s0)
    1a3c:	c3d8                	sw	a4,4(a5)
    1a3e:	0001                	nop
    1a40:	4472                	lw	s0,28(sp)
    1a42:	6105                	addi	sp,sp,32
    1a44:	8082                	ret

00001a46 <RVMSIS_GPIO_Reg_Set>:
    1a46:	1101                	addi	sp,sp,-32
    1a48:	ce06                	sw	ra,28(sp)
    1a4a:	cc22                	sw	s0,24(sp)
    1a4c:	1000                	addi	s0,sp,32
    1a4e:	fea42623          	sw	a0,-20(s0)
    1a52:	feb42423          	sw	a1,-24(s0)
    1a56:	fef42023          	sw	a5,-32(s0)
    1a5a:	87b2                	mv	a5,a2
    1a5c:	fef403a3          	sb	a5,-25(s0)
    1a60:	87b6                	mv	a5,a3
    1a62:	fef40323          	sb	a5,-26(s0)
    1a66:	87ba                	mv	a5,a4
    1a68:	fef402a3          	sb	a5,-27(s0)
    1a6c:	fe744783          	lbu	a5,-25(s0)
    1a70:	4705                	li	a4,1
    1a72:	04e78563          	beq	a5,a4,1abc <RVMSIS_GPIO_Reg_Set+0x76>
    1a76:	4709                	li	a4,2
    1a78:	08e78063          	beq	a5,a4,1af8 <RVMSIS_GPIO_Reg_Set+0xb2>
    1a7c:	12079c63          	bnez	a5,1bb4 <RVMSIS_GPIO_Reg_Set+0x16e>
    1a80:	fe644783          	lbu	a5,-26(s0)
    1a84:	c789                	beqz	a5,1a8e <RVMSIS_GPIO_Reg_Set+0x48>
    1a86:	4705                	li	a4,1
    1a88:	00e78e63          	beq	a5,a4,1aa4 <RVMSIS_GPIO_Reg_Set+0x5e>
    1a8c:	a225                	j	1bb4 <RVMSIS_GPIO_Reg_Set+0x16e>
    1a8e:	fe042703          	lw	a4,-32(s0)
    1a92:	fe544783          	lbu	a5,-27(s0)
    1a96:	86ba                	mv	a3,a4
    1a98:	4601                	li	a2,0
    1a9a:	85be                	mv	a1,a5
    1a9c:	fec42503          	lw	a0,-20(s0)
    1aa0:	3f01                	jal	19b0 <RVMSIS_GPIO_CNF_Set>
    1aa2:	a821                	j	1aba <RVMSIS_GPIO_Reg_Set+0x74>
    1aa4:	fe042703          	lw	a4,-32(s0)
    1aa8:	fe544783          	lbu	a5,-27(s0)
    1aac:	86ba                	mv	a3,a4
    1aae:	4605                	li	a2,1
    1ab0:	85be                	mv	a1,a5
    1ab2:	fec42503          	lw	a0,-20(s0)
    1ab6:	3ded                	jal	19b0 <RVMSIS_GPIO_CNF_Set>
    1ab8:	0001                	nop
    1aba:	a8ed                	j	1bb4 <RVMSIS_GPIO_Reg_Set+0x16e>
    1abc:	fe644783          	lbu	a5,-26(s0)
    1ac0:	c789                	beqz	a5,1aca <RVMSIS_GPIO_Reg_Set+0x84>
    1ac2:	4705                	li	a4,1
    1ac4:	00e78e63          	beq	a5,a4,1ae0 <RVMSIS_GPIO_Reg_Set+0x9a>
    1ac8:	a0f5                	j	1bb4 <RVMSIS_GPIO_Reg_Set+0x16e>
    1aca:	fe042703          	lw	a4,-32(s0)
    1ace:	fe544783          	lbu	a5,-27(s0)
    1ad2:	86ba                	mv	a3,a4
    1ad4:	4609                	li	a2,2
    1ad6:	85be                	mv	a1,a5
    1ad8:	fec42503          	lw	a0,-20(s0)
    1adc:	3dd1                	jal	19b0 <RVMSIS_GPIO_CNF_Set>
    1ade:	a821                	j	1af6 <RVMSIS_GPIO_Reg_Set+0xb0>
    1ae0:	fe042703          	lw	a4,-32(s0)
    1ae4:	fe544783          	lbu	a5,-27(s0)
    1ae8:	86ba                	mv	a3,a4
    1aea:	460d                	li	a2,3
    1aec:	85be                	mv	a1,a5
    1aee:	fec42503          	lw	a0,-20(s0)
    1af2:	3d7d                	jal	19b0 <RVMSIS_GPIO_CNF_Set>
    1af4:	0001                	nop
    1af6:	a87d                	j	1bb4 <RVMSIS_GPIO_Reg_Set+0x16e>
    1af8:	fe644783          	lbu	a5,-26(s0)
    1afc:	470d                	li	a4,3
    1afe:	02e78b63          	beq	a5,a4,1b34 <RVMSIS_GPIO_Reg_Set+0xee>
    1b02:	470d                	li	a4,3
    1b04:	00f74663          	blt	a4,a5,1b10 <RVMSIS_GPIO_Reg_Set+0xca>
    1b08:	4709                	li	a4,2
    1b0a:	00e78a63          	beq	a5,a4,1b1e <RVMSIS_GPIO_Reg_Set+0xd8>
    1b0e:	a055                	j	1bb2 <RVMSIS_GPIO_Reg_Set+0x16c>
    1b10:	4711                	li	a4,4
    1b12:	02e78c63          	beq	a5,a4,1b4a <RVMSIS_GPIO_Reg_Set+0x104>
    1b16:	4715                	li	a4,5
    1b18:	06e78463          	beq	a5,a4,1b80 <RVMSIS_GPIO_Reg_Set+0x13a>
    1b1c:	a859                	j	1bb2 <RVMSIS_GPIO_Reg_Set+0x16c>
    1b1e:	fe042703          	lw	a4,-32(s0)
    1b22:	fe544783          	lbu	a5,-27(s0)
    1b26:	86ba                	mv	a3,a4
    1b28:	4601                	li	a2,0
    1b2a:	85be                	mv	a1,a5
    1b2c:	fec42503          	lw	a0,-20(s0)
    1b30:	3541                	jal	19b0 <RVMSIS_GPIO_CNF_Set>
    1b32:	a041                	j	1bb2 <RVMSIS_GPIO_Reg_Set+0x16c>
    1b34:	fe042703          	lw	a4,-32(s0)
    1b38:	fe544783          	lbu	a5,-27(s0)
    1b3c:	86ba                	mv	a3,a4
    1b3e:	4605                	li	a2,1
    1b40:	85be                	mv	a1,a5
    1b42:	fec42503          	lw	a0,-20(s0)
    1b46:	35ad                	jal	19b0 <RVMSIS_GPIO_CNF_Set>
    1b48:	a0ad                	j	1bb2 <RVMSIS_GPIO_Reg_Set+0x16c>
    1b4a:	fe042703          	lw	a4,-32(s0)
    1b4e:	fe544783          	lbu	a5,-27(s0)
    1b52:	86ba                	mv	a3,a4
    1b54:	4609                	li	a2,2
    1b56:	85be                	mv	a1,a5
    1b58:	fec42503          	lw	a0,-20(s0)
    1b5c:	3d91                	jal	19b0 <RVMSIS_GPIO_CNF_Set>
    1b5e:	fec42783          	lw	a5,-20(s0)
    1b62:	47d8                	lw	a4,12(a5)
    1b64:	fe842783          	lw	a5,-24(s0)
    1b68:	239c                	lbu	a5,0(a5)
    1b6a:	86be                	mv	a3,a5
    1b6c:	4785                	li	a5,1
    1b6e:	00d797b3          	sll	a5,a5,a3
    1b72:	fff7c793          	not	a5,a5
    1b76:	8f7d                	and	a4,a4,a5
    1b78:	fec42783          	lw	a5,-20(s0)
    1b7c:	c7d8                	sw	a4,12(a5)
    1b7e:	a815                	j	1bb2 <RVMSIS_GPIO_Reg_Set+0x16c>
    1b80:	fe042703          	lw	a4,-32(s0)
    1b84:	fe544783          	lbu	a5,-27(s0)
    1b88:	86ba                	mv	a3,a4
    1b8a:	4609                	li	a2,2
    1b8c:	85be                	mv	a1,a5
    1b8e:	fec42503          	lw	a0,-20(s0)
    1b92:	3d39                	jal	19b0 <RVMSIS_GPIO_CNF_Set>
    1b94:	fec42783          	lw	a5,-20(s0)
    1b98:	47d8                	lw	a4,12(a5)
    1b9a:	fe842783          	lw	a5,-24(s0)
    1b9e:	239c                	lbu	a5,0(a5)
    1ba0:	86be                	mv	a3,a5
    1ba2:	4785                	li	a5,1
    1ba4:	00d797b3          	sll	a5,a5,a3
    1ba8:	8f5d                	or	a4,a4,a5
    1baa:	fec42783          	lw	a5,-20(s0)
    1bae:	c7d8                	sw	a4,12(a5)
    1bb0:	0001                	nop
    1bb2:	0001                	nop
    1bb4:	0001                	nop
    1bb6:	40f2                	lw	ra,28(sp)
    1bb8:	4462                	lw	s0,24(sp)
    1bba:	6105                	addi	sp,sp,32
    1bbc:	8082                	ret

00001bbe <RVMSIS_GPIO_init>:
    1bbe:	7179                	addi	sp,sp,-48
    1bc0:	d606                	sw	ra,44(sp)
    1bc2:	d422                	sw	s0,40(sp)
    1bc4:	1800                	addi	s0,sp,48
    1bc6:	fca42e23          	sw	a0,-36(s0)
    1bca:	87ae                	mv	a5,a1
    1bcc:	fcf40da3          	sb	a5,-37(s0)
    1bd0:	87b2                	mv	a5,a2
    1bd2:	fcf40d23          	sb	a5,-38(s0)
    1bd6:	87b6                	mv	a5,a3
    1bd8:	fcf40ca3          	sb	a5,-39(s0)
    1bdc:	87ba                	mv	a5,a4
    1bde:	fcf40c23          	sb	a5,-40(s0)
    1be2:	fe0407a3          	sb	zero,-17(s0)
    1be6:	fdc42703          	lw	a4,-36(s0)
    1bea:	400117b7          	lui	a5,0x40011
    1bee:	80078793          	addi	a5,a5,-2048 # 40010800 <_eusrstack+0x2000b800>
    1bf2:	00f71b63          	bne	a4,a5,1c08 <RVMSIS_GPIO_init+0x4a>
    1bf6:	400217b7          	lui	a5,0x40021
    1bfa:	4f98                	lw	a4,24(a5)
    1bfc:	400217b7          	lui	a5,0x40021
    1c00:	00476713          	ori	a4,a4,4
    1c04:	cf98                	sw	a4,24(a5)
    1c06:	a051                	j	1c8a <RVMSIS_GPIO_init+0xcc>
    1c08:	fdc42703          	lw	a4,-36(s0)
    1c0c:	400117b7          	lui	a5,0x40011
    1c10:	c0078793          	addi	a5,a5,-1024 # 40010c00 <_eusrstack+0x2000bc00>
    1c14:	00f71b63          	bne	a4,a5,1c2a <RVMSIS_GPIO_init+0x6c>
    1c18:	400217b7          	lui	a5,0x40021
    1c1c:	4f98                	lw	a4,24(a5)
    1c1e:	400217b7          	lui	a5,0x40021
    1c22:	00876713          	ori	a4,a4,8
    1c26:	cf98                	sw	a4,24(a5)
    1c28:	a08d                	j	1c8a <RVMSIS_GPIO_init+0xcc>
    1c2a:	fdc42703          	lw	a4,-36(s0)
    1c2e:	400117b7          	lui	a5,0x40011
    1c32:	00f71b63          	bne	a4,a5,1c48 <RVMSIS_GPIO_init+0x8a>
    1c36:	400217b7          	lui	a5,0x40021
    1c3a:	4f98                	lw	a4,24(a5)
    1c3c:	400217b7          	lui	a5,0x40021
    1c40:	01076713          	ori	a4,a4,16
    1c44:	cf98                	sw	a4,24(a5)
    1c46:	a091                	j	1c8a <RVMSIS_GPIO_init+0xcc>
    1c48:	fdc42703          	lw	a4,-36(s0)
    1c4c:	400117b7          	lui	a5,0x40011
    1c50:	40078793          	addi	a5,a5,1024 # 40011400 <_eusrstack+0x2000c400>
    1c54:	00f71b63          	bne	a4,a5,1c6a <RVMSIS_GPIO_init+0xac>
    1c58:	400217b7          	lui	a5,0x40021
    1c5c:	4f98                	lw	a4,24(a5)
    1c5e:	400217b7          	lui	a5,0x40021
    1c62:	02076713          	ori	a4,a4,32
    1c66:	cf98                	sw	a4,24(a5)
    1c68:	a00d                	j	1c8a <RVMSIS_GPIO_init+0xcc>
    1c6a:	fdc42703          	lw	a4,-36(s0)
    1c6e:	400127b7          	lui	a5,0x40012
    1c72:	80078793          	addi	a5,a5,-2048 # 40011800 <_eusrstack+0x2000c800>
    1c76:	00f71a63          	bne	a4,a5,1c8a <RVMSIS_GPIO_init+0xcc>
    1c7a:	400217b7          	lui	a5,0x40021
    1c7e:	4f98                	lw	a4,24(a5)
    1c80:	400217b7          	lui	a5,0x40021
    1c84:	04076713          	ori	a4,a4,64
    1c88:	cf98                	sw	a4,24(a5)
    1c8a:	fdb44783          	lbu	a5,-37(s0)
    1c8e:	fd844703          	lbu	a4,-40(s0)
    1c92:	863a                	mv	a2,a4
    1c94:	85be                	mv	a1,a5
    1c96:	fdc42503          	lw	a0,-36(s0)
    1c9a:	39b9                	jal	18f8 <RVMSIS_GPIO_SPEED_Set>
    1c9c:	fdb44703          	lbu	a4,-37(s0)
    1ca0:	479d                	li	a5,7
    1ca2:	02e7e963          	bltu	a5,a4,1cd4 <RVMSIS_GPIO_init+0x116>
    1ca6:	fdb44783          	lbu	a5,-37(s0)
    1caa:	078a                	slli	a5,a5,0x2
    1cac:	0ff7f793          	andi	a5,a5,255
    1cb0:	0789                	addi	a5,a5,2
    1cb2:	0ff7f793          	andi	a5,a5,255
    1cb6:	fef407a3          	sb	a5,-17(s0)
    1cba:	fef40793          	addi	a5,s0,-17
    1cbe:	fd944683          	lbu	a3,-39(s0)
    1cc2:	fda44603          	lbu	a2,-38(s0)
    1cc6:	fdb40593          	addi	a1,s0,-37
    1cca:	4701                	li	a4,0
    1ccc:	fdc42503          	lw	a0,-36(s0)
    1cd0:	3b9d                	jal	1a46 <RVMSIS_GPIO_Reg_Set>
    1cd2:	a835                	j	1d0e <RVMSIS_GPIO_init+0x150>
    1cd4:	fdb44783          	lbu	a5,-37(s0)
    1cd8:	17e1                	addi	a5,a5,-8
    1cda:	0ff7f793          	andi	a5,a5,255
    1cde:	fcf40da3          	sb	a5,-37(s0)
    1ce2:	fdb44783          	lbu	a5,-37(s0)
    1ce6:	078a                	slli	a5,a5,0x2
    1ce8:	0ff7f793          	andi	a5,a5,255
    1cec:	0789                	addi	a5,a5,2
    1cee:	0ff7f793          	andi	a5,a5,255
    1cf2:	fef407a3          	sb	a5,-17(s0)
    1cf6:	fef40793          	addi	a5,s0,-17
    1cfa:	fd944683          	lbu	a3,-39(s0)
    1cfe:	fda44603          	lbu	a2,-38(s0)
    1d02:	fdb40593          	addi	a1,s0,-37
    1d06:	4705                	li	a4,1
    1d08:	fdc42503          	lw	a0,-36(s0)
    1d0c:	3b2d                	jal	1a46 <RVMSIS_GPIO_Reg_Set>
    1d0e:	0001                	nop
    1d10:	50b2                	lw	ra,44(sp)
    1d12:	5422                	lw	s0,40(sp)
    1d14:	6145                	addi	sp,sp,48
    1d16:	8082                	ret

00001d18 <RVMSIS_TIM3_init>:
    1d18:	1101                	addi	sp,sp,-32
    1d1a:	ce22                	sw	s0,28(sp)
    1d1c:	1000                	addi	s0,sp,32
    1d1e:	400217b7          	lui	a5,0x40021
    1d22:	4fd8                	lw	a4,28(a5)
    1d24:	400217b7          	lui	a5,0x40021
    1d28:	00276713          	ori	a4,a4,2
    1d2c:	cfd8                	sw	a4,28(a5)
    1d2e:	400217b7          	lui	a5,0x40021
    1d32:	4f98                	lw	a4,24(a5)
    1d34:	400217b7          	lui	a5,0x40021
    1d38:	00176713          	ori	a4,a4,1
    1d3c:	cf98                	sw	a4,24(a5)
    1d3e:	400007b7          	lui	a5,0x40000
    1d42:	40078793          	addi	a5,a5,1024 # 40000400 <_eusrstack+0x1fffb400>
    1d46:	239e                	lhu	a5,0(a5)
    1d48:	01079713          	slli	a4,a5,0x10
    1d4c:	8341                	srli	a4,a4,0x10
    1d4e:	400007b7          	lui	a5,0x40000
    1d52:	40078793          	addi	a5,a5,1024 # 40000400 <_eusrstack+0x1fffb400>
    1d56:	9b75                	andi	a4,a4,-3
    1d58:	0742                	slli	a4,a4,0x10
    1d5a:	8341                	srli	a4,a4,0x10
    1d5c:	a39a                	sh	a4,0(a5)
    1d5e:	400007b7          	lui	a5,0x40000
    1d62:	40078793          	addi	a5,a5,1024 # 40000400 <_eusrstack+0x1fffb400>
    1d66:	239e                	lhu	a5,0(a5)
    1d68:	01079713          	slli	a4,a5,0x10
    1d6c:	8341                	srli	a4,a4,0x10
    1d6e:	400007b7          	lui	a5,0x40000
    1d72:	40078793          	addi	a5,a5,1024 # 40000400 <_eusrstack+0x1fffb400>
    1d76:	9b6d                	andi	a4,a4,-5
    1d78:	0742                	slli	a4,a4,0x10
    1d7a:	8341                	srli	a4,a4,0x10
    1d7c:	a39a                	sh	a4,0(a5)
    1d7e:	400007b7          	lui	a5,0x40000
    1d82:	40078793          	addi	a5,a5,1024 # 40000400 <_eusrstack+0x1fffb400>
    1d86:	239e                	lhu	a5,0(a5)
    1d88:	01079713          	slli	a4,a5,0x10
    1d8c:	8341                	srli	a4,a4,0x10
    1d8e:	400007b7          	lui	a5,0x40000
    1d92:	40078793          	addi	a5,a5,1024 # 40000400 <_eusrstack+0x1fffb400>
    1d96:	00876713          	ori	a4,a4,8
    1d9a:	0742                	slli	a4,a4,0x10
    1d9c:	8341                	srli	a4,a4,0x10
    1d9e:	a39a                	sh	a4,0(a5)
    1da0:	400007b7          	lui	a5,0x40000
    1da4:	40078793          	addi	a5,a5,1024 # 40000400 <_eusrstack+0x1fffb400>
    1da8:	239e                	lhu	a5,0(a5)
    1daa:	01079713          	slli	a4,a5,0x10
    1dae:	8341                	srli	a4,a4,0x10
    1db0:	400007b7          	lui	a5,0x40000
    1db4:	40078793          	addi	a5,a5,1024 # 40000400 <_eusrstack+0x1fffb400>
    1db8:	9b3d                	andi	a4,a4,-17
    1dba:	0742                	slli	a4,a4,0x10
    1dbc:	8341                	srli	a4,a4,0x10
    1dbe:	a39a                	sh	a4,0(a5)
    1dc0:	400007b7          	lui	a5,0x40000
    1dc4:	40078793          	addi	a5,a5,1024 # 40000400 <_eusrstack+0x1fffb400>
    1dc8:	239e                	lhu	a5,0(a5)
    1dca:	01079713          	slli	a4,a5,0x10
    1dce:	8341                	srli	a4,a4,0x10
    1dd0:	400007b7          	lui	a5,0x40000
    1dd4:	40078793          	addi	a5,a5,1024 # 40000400 <_eusrstack+0x1fffb400>
    1dd8:	f9f77713          	andi	a4,a4,-97
    1ddc:	0742                	slli	a4,a4,0x10
    1dde:	8341                	srli	a4,a4,0x10
    1de0:	a39a                	sh	a4,0(a5)
    1de2:	400007b7          	lui	a5,0x40000
    1de6:	40078793          	addi	a5,a5,1024 # 40000400 <_eusrstack+0x1fffb400>
    1dea:	239e                	lhu	a5,0(a5)
    1dec:	01079713          	slli	a4,a5,0x10
    1df0:	8341                	srli	a4,a4,0x10
    1df2:	400007b7          	lui	a5,0x40000
    1df6:	40078793          	addi	a5,a5,1024 # 40000400 <_eusrstack+0x1fffb400>
    1dfa:	08076713          	ori	a4,a4,128
    1dfe:	0742                	slli	a4,a4,0x10
    1e00:	8341                	srli	a4,a4,0x10
    1e02:	a39a                	sh	a4,0(a5)
    1e04:	400007b7          	lui	a5,0x40000
    1e08:	40078793          	addi	a5,a5,1024 # 40000400 <_eusrstack+0x1fffb400>
    1e0c:	239e                	lhu	a5,0(a5)
    1e0e:	01079713          	slli	a4,a5,0x10
    1e12:	8341                	srli	a4,a4,0x10
    1e14:	400007b7          	lui	a5,0x40000
    1e18:	40078793          	addi	a5,a5,1024 # 40000400 <_eusrstack+0x1fffb400>
    1e1c:	cff77713          	andi	a4,a4,-769
    1e20:	0742                	slli	a4,a4,0x10
    1e22:	8341                	srli	a4,a4,0x10
    1e24:	a39a                	sh	a4,0(a5)
    1e26:	400007b7          	lui	a5,0x40000
    1e2a:	40078793          	addi	a5,a5,1024 # 40000400 <_eusrstack+0x1fffb400>
    1e2e:	27de                	lhu	a5,12(a5)
    1e30:	01079713          	slli	a4,a5,0x10
    1e34:	8341                	srli	a4,a4,0x10
    1e36:	400007b7          	lui	a5,0x40000
    1e3a:	40078793          	addi	a5,a5,1024 # 40000400 <_eusrstack+0x1fffb400>
    1e3e:	00176713          	ori	a4,a4,1
    1e42:	0742                	slli	a4,a4,0x10
    1e44:	8341                	srli	a4,a4,0x10
    1e46:	a7da                	sh	a4,12(a5)
    1e48:	400007b7          	lui	a5,0x40000
    1e4c:	40078793          	addi	a5,a5,1024 # 40000400 <_eusrstack+0x1fffb400>
    1e50:	04a00713          	li	a4,74
    1e54:	b79a                	sh	a4,40(a5)
    1e56:	400007b7          	lui	a5,0x40000
    1e5a:	40078793          	addi	a5,a5,1024 # 40000400 <_eusrstack+0x1fffb400>
    1e5e:	5db00713          	li	a4,1499
    1e62:	b7da                	sh	a4,44(a5)
    1e64:	02d00793          	li	a5,45
    1e68:	fef42623          	sw	a5,-20(s0)
    1e6c:	fec42783          	lw	a5,-20(s0)
    1e70:	8bfd                	andi	a5,a5,31
    1e72:	4705                	li	a4,1
    1e74:	00f716b3          	sll	a3,a4,a5
    1e78:	e000e737          	lui	a4,0xe000e
    1e7c:	fec42783          	lw	a5,-20(s0)
    1e80:	8395                	srli	a5,a5,0x5
    1e82:	04078793          	addi	a5,a5,64
    1e86:	078a                	slli	a5,a5,0x2
    1e88:	97ba                	add	a5,a5,a4
    1e8a:	c394                	sw	a3,0(a5)
    1e8c:	400007b7          	lui	a5,0x40000
    1e90:	40078793          	addi	a5,a5,1024 # 40000400 <_eusrstack+0x1fffb400>
    1e94:	239e                	lhu	a5,0(a5)
    1e96:	01079713          	slli	a4,a5,0x10
    1e9a:	8341                	srli	a4,a4,0x10
    1e9c:	400007b7          	lui	a5,0x40000
    1ea0:	40078793          	addi	a5,a5,1024 # 40000400 <_eusrstack+0x1fffb400>
    1ea4:	00176713          	ori	a4,a4,1
    1ea8:	0742                	slli	a4,a4,0x10
    1eaa:	8341                	srli	a4,a4,0x10
    1eac:	a39a                	sh	a4,0(a5)
    1eae:	0001                	nop
    1eb0:	4472                	lw	s0,28(sp)
    1eb2:	6105                	addi	sp,sp,32
    1eb4:	8082                	ret

00001eb6 <RVMSIS_USART1_Init>:
    1eb6:	1101                	addi	sp,sp,-32
    1eb8:	ce22                	sw	s0,28(sp)
    1eba:	1000                	addi	s0,sp,32
    1ebc:	400217b7          	lui	a5,0x40021
    1ec0:	4f98                	lw	a4,24(a5)
    1ec2:	400217b7          	lui	a5,0x40021
    1ec6:	00476713          	ori	a4,a4,4
    1eca:	cf98                	sw	a4,24(a5)
    1ecc:	400217b7          	lui	a5,0x40021
    1ed0:	4f98                	lw	a4,24(a5)
    1ed2:	400217b7          	lui	a5,0x40021
    1ed6:	00176713          	ori	a4,a4,1
    1eda:	cf98                	sw	a4,24(a5)
    1edc:	400117b7          	lui	a5,0x40011
    1ee0:	80078793          	addi	a5,a5,-2048 # 40010800 <_eusrstack+0x2000b800>
    1ee4:	43dc                	lw	a5,4(a5)
    1ee6:	f3f7f713          	andi	a4,a5,-193
    1eea:	400117b7          	lui	a5,0x40011
    1eee:	80078793          	addi	a5,a5,-2048 # 40010800 <_eusrstack+0x2000b800>
    1ef2:	08076713          	ori	a4,a4,128
    1ef6:	c3d8                	sw	a4,4(a5)
    1ef8:	400117b7          	lui	a5,0x40011
    1efc:	80078793          	addi	a5,a5,-2048 # 40010800 <_eusrstack+0x2000b800>
    1f00:	43d8                	lw	a4,4(a5)
    1f02:	400117b7          	lui	a5,0x40011
    1f06:	80078793          	addi	a5,a5,-2048 # 40010800 <_eusrstack+0x2000b800>
    1f0a:	03076713          	ori	a4,a4,48
    1f0e:	c3d8                	sw	a4,4(a5)
    1f10:	400117b7          	lui	a5,0x40011
    1f14:	80078793          	addi	a5,a5,-2048 # 40010800 <_eusrstack+0x2000b800>
    1f18:	43d8                	lw	a4,4(a5)
    1f1a:	77fd                	lui	a5,0xfffff
    1f1c:	3ff78793          	addi	a5,a5,1023 # fffff3ff <_eusrstack+0xdfffa3ff>
    1f20:	8f7d                	and	a4,a4,a5
    1f22:	400117b7          	lui	a5,0x40011
    1f26:	80078793          	addi	a5,a5,-2048 # 40010800 <_eusrstack+0x2000b800>
    1f2a:	40076713          	ori	a4,a4,1024
    1f2e:	c3d8                	sw	a4,4(a5)
    1f30:	400117b7          	lui	a5,0x40011
    1f34:	80078793          	addi	a5,a5,-2048 # 40010800 <_eusrstack+0x2000b800>
    1f38:	43d8                	lw	a4,4(a5)
    1f3a:	400117b7          	lui	a5,0x40011
    1f3e:	80078793          	addi	a5,a5,-2048 # 40010800 <_eusrstack+0x2000b800>
    1f42:	cff77713          	andi	a4,a4,-769
    1f46:	c3d8                	sw	a4,4(a5)
    1f48:	400217b7          	lui	a5,0x40021
    1f4c:	4f94                	lw	a3,24(a5)
    1f4e:	400217b7          	lui	a5,0x40021
    1f52:	6711                	lui	a4,0x4
    1f54:	8f55                	or	a4,a4,a3
    1f56:	cf98                	sw	a4,24(a5)
    1f58:	400147b7          	lui	a5,0x40014
    1f5c:	80078793          	addi	a5,a5,-2048 # 40013800 <_eusrstack+0x2000e800>
    1f60:	279e                	lhu	a5,8(a5)
    1f62:	07c2                	slli	a5,a5,0x10
    1f64:	83c1                	srli	a5,a5,0x10
    1f66:	07c2                	slli	a5,a5,0x10
    1f68:	87c1                	srai	a5,a5,0x10
    1f6a:	8bbd                	andi	a5,a5,15
    1f6c:	01079713          	slli	a4,a5,0x10
    1f70:	8741                	srai	a4,a4,0x10
    1f72:	6789                	lui	a5,0x2
    1f74:	d4078793          	addi	a5,a5,-704 # 1d40 <RVMSIS_TIM3_init+0x28>
    1f78:	8fd9                	or	a5,a5,a4
    1f7a:	01079713          	slli	a4,a5,0x10
    1f7e:	8741                	srai	a4,a4,0x10
    1f80:	400147b7          	lui	a5,0x40014
    1f84:	80078793          	addi	a5,a5,-2048 # 40013800 <_eusrstack+0x2000e800>
    1f88:	0742                	slli	a4,a4,0x10
    1f8a:	8341                	srli	a4,a4,0x10
    1f8c:	a79a                	sh	a4,8(a5)
    1f8e:	400147b7          	lui	a5,0x40014
    1f92:	80078793          	addi	a5,a5,-2048 # 40013800 <_eusrstack+0x2000e800>
    1f96:	279e                	lhu	a5,8(a5)
    1f98:	07c2                	slli	a5,a5,0x10
    1f9a:	83c1                	srli	a5,a5,0x10
    1f9c:	07c2                	slli	a5,a5,0x10
    1f9e:	87c1                	srai	a5,a5,0x10
    1fa0:	f307f793          	andi	a5,a5,-208
    1fa4:	07c2                	slli	a5,a5,0x10
    1fa6:	87c1                	srai	a5,a5,0x10
    1fa8:	0c07e793          	ori	a5,a5,192
    1fac:	01079713          	slli	a4,a5,0x10
    1fb0:	8741                	srai	a4,a4,0x10
    1fb2:	400147b7          	lui	a5,0x40014
    1fb6:	80078793          	addi	a5,a5,-2048 # 40013800 <_eusrstack+0x2000e800>
    1fba:	0742                	slli	a4,a4,0x10
    1fbc:	8341                	srli	a4,a4,0x10
    1fbe:	a79a                	sh	a4,8(a5)
    1fc0:	400147b7          	lui	a5,0x40014
    1fc4:	80078793          	addi	a5,a5,-2048 # 40013800 <_eusrstack+0x2000e800>
    1fc8:	27de                	lhu	a5,12(a5)
    1fca:	01079693          	slli	a3,a5,0x10
    1fce:	82c1                	srli	a3,a3,0x10
    1fd0:	400147b7          	lui	a5,0x40014
    1fd4:	80078793          	addi	a5,a5,-2048 # 40013800 <_eusrstack+0x2000e800>
    1fd8:	6709                	lui	a4,0x2
    1fda:	8f55                	or	a4,a4,a3
    1fdc:	0742                	slli	a4,a4,0x10
    1fde:	8341                	srli	a4,a4,0x10
    1fe0:	a7da                	sh	a4,12(a5)
    1fe2:	400147b7          	lui	a5,0x40014
    1fe6:	80078793          	addi	a5,a5,-2048 # 40013800 <_eusrstack+0x2000e800>
    1fea:	27de                	lhu	a5,12(a5)
    1fec:	01079693          	slli	a3,a5,0x10
    1ff0:	82c1                	srli	a3,a3,0x10
    1ff2:	400147b7          	lui	a5,0x40014
    1ff6:	80078793          	addi	a5,a5,-2048 # 40013800 <_eusrstack+0x2000e800>
    1ffa:	777d                	lui	a4,0xfffff
    1ffc:	177d                	addi	a4,a4,-1
    1ffe:	8f75                	and	a4,a4,a3
    2000:	0742                	slli	a4,a4,0x10
    2002:	8341                	srli	a4,a4,0x10
    2004:	a7da                	sh	a4,12(a5)
    2006:	400147b7          	lui	a5,0x40014
    200a:	80078793          	addi	a5,a5,-2048 # 40013800 <_eusrstack+0x2000e800>
    200e:	27de                	lhu	a5,12(a5)
    2010:	01079693          	slli	a3,a5,0x10
    2014:	82c1                	srli	a3,a3,0x10
    2016:	400147b7          	lui	a5,0x40014
    201a:	80078793          	addi	a5,a5,-2048 # 40013800 <_eusrstack+0x2000e800>
    201e:	777d                	lui	a4,0xfffff
    2020:	7ff70713          	addi	a4,a4,2047 # fffff7ff <_eusrstack+0xdfffa7ff>
    2024:	8f75                	and	a4,a4,a3
    2026:	0742                	slli	a4,a4,0x10
    2028:	8341                	srli	a4,a4,0x10
    202a:	a7da                	sh	a4,12(a5)
    202c:	400147b7          	lui	a5,0x40014
    2030:	80078793          	addi	a5,a5,-2048 # 40013800 <_eusrstack+0x2000e800>
    2034:	27de                	lhu	a5,12(a5)
    2036:	01079713          	slli	a4,a5,0x10
    203a:	8341                	srli	a4,a4,0x10
    203c:	400147b7          	lui	a5,0x40014
    2040:	80078793          	addi	a5,a5,-2048 # 40013800 <_eusrstack+0x2000e800>
    2044:	bff77713          	andi	a4,a4,-1025
    2048:	0742                	slli	a4,a4,0x10
    204a:	8341                	srli	a4,a4,0x10
    204c:	a7da                	sh	a4,12(a5)
    204e:	400147b7          	lui	a5,0x40014
    2052:	80078793          	addi	a5,a5,-2048 # 40013800 <_eusrstack+0x2000e800>
    2056:	27de                	lhu	a5,12(a5)
    2058:	01079713          	slli	a4,a5,0x10
    205c:	8341                	srli	a4,a4,0x10
    205e:	400147b7          	lui	a5,0x40014
    2062:	80078793          	addi	a5,a5,-2048 # 40013800 <_eusrstack+0x2000e800>
    2066:	eff77713          	andi	a4,a4,-257
    206a:	0742                	slli	a4,a4,0x10
    206c:	8341                	srli	a4,a4,0x10
    206e:	a7da                	sh	a4,12(a5)
    2070:	400147b7          	lui	a5,0x40014
    2074:	80078793          	addi	a5,a5,-2048 # 40013800 <_eusrstack+0x2000e800>
    2078:	27de                	lhu	a5,12(a5)
    207a:	01079713          	slli	a4,a5,0x10
    207e:	8341                	srli	a4,a4,0x10
    2080:	400147b7          	lui	a5,0x40014
    2084:	80078793          	addi	a5,a5,-2048 # 40013800 <_eusrstack+0x2000e800>
    2088:	f7f77713          	andi	a4,a4,-129
    208c:	0742                	slli	a4,a4,0x10
    208e:	8341                	srli	a4,a4,0x10
    2090:	a7da                	sh	a4,12(a5)
    2092:	400147b7          	lui	a5,0x40014
    2096:	80078793          	addi	a5,a5,-2048 # 40013800 <_eusrstack+0x2000e800>
    209a:	27de                	lhu	a5,12(a5)
    209c:	01079713          	slli	a4,a5,0x10
    20a0:	8341                	srli	a4,a4,0x10
    20a2:	400147b7          	lui	a5,0x40014
    20a6:	80078793          	addi	a5,a5,-2048 # 40013800 <_eusrstack+0x2000e800>
    20aa:	fbf77713          	andi	a4,a4,-65
    20ae:	0742                	slli	a4,a4,0x10
    20b0:	8341                	srli	a4,a4,0x10
    20b2:	a7da                	sh	a4,12(a5)
    20b4:	400147b7          	lui	a5,0x40014
    20b8:	80078793          	addi	a5,a5,-2048 # 40013800 <_eusrstack+0x2000e800>
    20bc:	27de                	lhu	a5,12(a5)
    20be:	01079713          	slli	a4,a5,0x10
    20c2:	8341                	srli	a4,a4,0x10
    20c4:	400147b7          	lui	a5,0x40014
    20c8:	80078793          	addi	a5,a5,-2048 # 40013800 <_eusrstack+0x2000e800>
    20cc:	02076713          	ori	a4,a4,32
    20d0:	0742                	slli	a4,a4,0x10
    20d2:	8341                	srli	a4,a4,0x10
    20d4:	a7da                	sh	a4,12(a5)
    20d6:	400147b7          	lui	a5,0x40014
    20da:	80078793          	addi	a5,a5,-2048 # 40013800 <_eusrstack+0x2000e800>
    20de:	27de                	lhu	a5,12(a5)
    20e0:	01079713          	slli	a4,a5,0x10
    20e4:	8341                	srli	a4,a4,0x10
    20e6:	400147b7          	lui	a5,0x40014
    20ea:	80078793          	addi	a5,a5,-2048 # 40013800 <_eusrstack+0x2000e800>
    20ee:	01076713          	ori	a4,a4,16
    20f2:	0742                	slli	a4,a4,0x10
    20f4:	8341                	srli	a4,a4,0x10
    20f6:	a7da                	sh	a4,12(a5)
    20f8:	400147b7          	lui	a5,0x40014
    20fc:	80078793          	addi	a5,a5,-2048 # 40013800 <_eusrstack+0x2000e800>
    2100:	27de                	lhu	a5,12(a5)
    2102:	01079713          	slli	a4,a5,0x10
    2106:	8341                	srli	a4,a4,0x10
    2108:	400147b7          	lui	a5,0x40014
    210c:	80078793          	addi	a5,a5,-2048 # 40013800 <_eusrstack+0x2000e800>
    2110:	00876713          	ori	a4,a4,8
    2114:	0742                	slli	a4,a4,0x10
    2116:	8341                	srli	a4,a4,0x10
    2118:	a7da                	sh	a4,12(a5)
    211a:	400147b7          	lui	a5,0x40014
    211e:	80078793          	addi	a5,a5,-2048 # 40013800 <_eusrstack+0x2000e800>
    2122:	27de                	lhu	a5,12(a5)
    2124:	01079713          	slli	a4,a5,0x10
    2128:	8341                	srli	a4,a4,0x10
    212a:	400147b7          	lui	a5,0x40014
    212e:	80078793          	addi	a5,a5,-2048 # 40013800 <_eusrstack+0x2000e800>
    2132:	00476713          	ori	a4,a4,4
    2136:	0742                	slli	a4,a4,0x10
    2138:	8341                	srli	a4,a4,0x10
    213a:	a7da                	sh	a4,12(a5)
    213c:	400147b7          	lui	a5,0x40014
    2140:	80078793          	addi	a5,a5,-2048 # 40013800 <_eusrstack+0x2000e800>
    2144:	27de                	lhu	a5,12(a5)
    2146:	01079713          	slli	a4,a5,0x10
    214a:	8341                	srli	a4,a4,0x10
    214c:	400147b7          	lui	a5,0x40014
    2150:	80078793          	addi	a5,a5,-2048 # 40013800 <_eusrstack+0x2000e800>
    2154:	9b75                	andi	a4,a4,-3
    2156:	0742                	slli	a4,a4,0x10
    2158:	8341                	srli	a4,a4,0x10
    215a:	a7da                	sh	a4,12(a5)
    215c:	400147b7          	lui	a5,0x40014
    2160:	80078793          	addi	a5,a5,-2048 # 40013800 <_eusrstack+0x2000e800>
    2164:	27de                	lhu	a5,12(a5)
    2166:	01079713          	slli	a4,a5,0x10
    216a:	8341                	srli	a4,a4,0x10
    216c:	400147b7          	lui	a5,0x40014
    2170:	80078793          	addi	a5,a5,-2048 # 40013800 <_eusrstack+0x2000e800>
    2174:	9b79                	andi	a4,a4,-2
    2176:	0742                	slli	a4,a4,0x10
    2178:	8341                	srli	a4,a4,0x10
    217a:	a7da                	sh	a4,12(a5)
    217c:	400147b7          	lui	a5,0x40014
    2180:	80078793          	addi	a5,a5,-2048 # 40013800 <_eusrstack+0x2000e800>
    2184:	00079823          	sh	zero,16(a5)
    2188:	400147b7          	lui	a5,0x40014
    218c:	80078793          	addi	a5,a5,-2048 # 40013800 <_eusrstack+0x2000e800>
    2190:	2b9e                	lhu	a5,16(a5)
    2192:	01079693          	slli	a3,a5,0x10
    2196:	82c1                	srli	a3,a3,0x10
    2198:	400147b7          	lui	a5,0x40014
    219c:	80078793          	addi	a5,a5,-2048 # 40013800 <_eusrstack+0x2000e800>
    21a0:	7775                	lui	a4,0xffffd
    21a2:	177d                	addi	a4,a4,-1
    21a4:	8f75                	and	a4,a4,a3
    21a6:	0742                	slli	a4,a4,0x10
    21a8:	8341                	srli	a4,a4,0x10
    21aa:	ab9a                	sh	a4,16(a5)
    21ac:	400147b7          	lui	a5,0x40014
    21b0:	80078793          	addi	a5,a5,-2048 # 40013800 <_eusrstack+0x2000e800>
    21b4:	00079a23          	sh	zero,20(a5)
    21b8:	400147b7          	lui	a5,0x40014
    21bc:	80078793          	addi	a5,a5,-2048 # 40013800 <_eusrstack+0x2000e800>
    21c0:	00079c23          	sh	zero,24(a5)
    21c4:	03500793          	li	a5,53
    21c8:	fef42223          	sw	a5,-28(s0)
    21cc:	fe442783          	lw	a5,-28(s0)
    21d0:	8bfd                	andi	a5,a5,31
    21d2:	4705                	li	a4,1
    21d4:	00f716b3          	sll	a3,a4,a5
    21d8:	e000e737          	lui	a4,0xe000e
    21dc:	fe442783          	lw	a5,-28(s0)
    21e0:	8395                	srli	a5,a5,0x5
    21e2:	04078793          	addi	a5,a5,64
    21e6:	078a                	slli	a5,a5,0x2
    21e8:	97ba                	add	a5,a5,a4
    21ea:	c394                	sw	a3,0(a5)
    21ec:	03500793          	li	a5,53
    21f0:	fef42623          	sw	a5,-20(s0)
    21f4:	fe0405a3          	sb	zero,-21(s0)
    21f8:	e000e737          	lui	a4,0xe000e
    21fc:	fec42783          	lw	a5,-20(s0)
    2200:	97ba                	add	a5,a5,a4
    2202:	feb44703          	lbu	a4,-21(s0)
    2206:	40e78023          	sb	a4,1024(a5)
    220a:	0001                	nop
    220c:	4472                	lw	s0,28(sp)
    220e:	6105                	addi	sp,sp,32
    2210:	8082                	ret

00002212 <RVMSIS_USART2_Init>:
    2212:	1101                	addi	sp,sp,-32
    2214:	ce22                	sw	s0,28(sp)
    2216:	1000                	addi	s0,sp,32
    2218:	400217b7          	lui	a5,0x40021
    221c:	4f98                	lw	a4,24(a5)
    221e:	400217b7          	lui	a5,0x40021
    2222:	00476713          	ori	a4,a4,4
    2226:	cf98                	sw	a4,24(a5)
    2228:	400217b7          	lui	a5,0x40021
    222c:	4f98                	lw	a4,24(a5)
    222e:	400217b7          	lui	a5,0x40021
    2232:	00176713          	ori	a4,a4,1
    2236:	cf98                	sw	a4,24(a5)
    2238:	400117b7          	lui	a5,0x40011
    223c:	80078793          	addi	a5,a5,-2048 # 40010800 <_eusrstack+0x2000b800>
    2240:	4398                	lw	a4,0(a5)
    2242:	77fd                	lui	a5,0xfffff
    2244:	3ff78793          	addi	a5,a5,1023 # fffff3ff <_eusrstack+0xdfffa3ff>
    2248:	00f776b3          	and	a3,a4,a5
    224c:	400117b7          	lui	a5,0x40011
    2250:	80078793          	addi	a5,a5,-2048 # 40010800 <_eusrstack+0x2000b800>
    2254:	6705                	lui	a4,0x1
    2256:	80070713          	addi	a4,a4,-2048 # 800 <__stack_size>
    225a:	8f55                	or	a4,a4,a3
    225c:	c398                	sw	a4,0(a5)
    225e:	400117b7          	lui	a5,0x40011
    2262:	80078793          	addi	a5,a5,-2048 # 40010800 <_eusrstack+0x2000b800>
    2266:	4398                	lw	a4,0(a5)
    2268:	400117b7          	lui	a5,0x40011
    226c:	80078793          	addi	a5,a5,-2048 # 40010800 <_eusrstack+0x2000b800>
    2270:	30076713          	ori	a4,a4,768
    2274:	c398                	sw	a4,0(a5)
    2276:	400117b7          	lui	a5,0x40011
    227a:	80078793          	addi	a5,a5,-2048 # 40010800 <_eusrstack+0x2000b800>
    227e:	4398                	lw	a4,0(a5)
    2280:	77d1                	lui	a5,0xffff4
    2282:	17fd                	addi	a5,a5,-1
    2284:	00f776b3          	and	a3,a4,a5
    2288:	400117b7          	lui	a5,0x40011
    228c:	80078793          	addi	a5,a5,-2048 # 40010800 <_eusrstack+0x2000b800>
    2290:	6711                	lui	a4,0x4
    2292:	8f55                	or	a4,a4,a3
    2294:	c398                	sw	a4,0(a5)
    2296:	400117b7          	lui	a5,0x40011
    229a:	80078793          	addi	a5,a5,-2048 # 40010800 <_eusrstack+0x2000b800>
    229e:	4394                	lw	a3,0(a5)
    22a0:	400117b7          	lui	a5,0x40011
    22a4:	80078793          	addi	a5,a5,-2048 # 40010800 <_eusrstack+0x2000b800>
    22a8:	7775                	lui	a4,0xffffd
    22aa:	177d                	addi	a4,a4,-1
    22ac:	8f75                	and	a4,a4,a3
    22ae:	c398                	sw	a4,0(a5)
    22b0:	400217b7          	lui	a5,0x40021
    22b4:	4fd4                	lw	a3,28(a5)
    22b6:	400217b7          	lui	a5,0x40021
    22ba:	00020737          	lui	a4,0x20
    22be:	8f55                	or	a4,a4,a3
    22c0:	cfd8                	sw	a4,28(a5)
    22c2:	400047b7          	lui	a5,0x40004
    22c6:	40078793          	addi	a5,a5,1024 # 40004400 <_eusrstack+0x1ffff400>
    22ca:	279e                	lhu	a5,8(a5)
    22cc:	07c2                	slli	a5,a5,0x10
    22ce:	83c1                	srli	a5,a5,0x10
    22d0:	07c2                	slli	a5,a5,0x10
    22d2:	87c1                	srai	a5,a5,0x10
    22d4:	8bbd                	andi	a5,a5,15
    22d6:	01079713          	slli	a4,a5,0x10
    22da:	8741                	srai	a4,a4,0x10
    22dc:	6785                	lui	a5,0x1
    22de:	ea078793          	addi	a5,a5,-352 # ea0 <ModbusRTU_response_handler+0xfe>
    22e2:	8fd9                	or	a5,a5,a4
    22e4:	01079713          	slli	a4,a5,0x10
    22e8:	8741                	srai	a4,a4,0x10
    22ea:	400047b7          	lui	a5,0x40004
    22ee:	40078793          	addi	a5,a5,1024 # 40004400 <_eusrstack+0x1ffff400>
    22f2:	0742                	slli	a4,a4,0x10
    22f4:	8341                	srli	a4,a4,0x10
    22f6:	a79a                	sh	a4,8(a5)
    22f8:	400047b7          	lui	a5,0x40004
    22fc:	40078793          	addi	a5,a5,1024 # 40004400 <_eusrstack+0x1ffff400>
    2300:	279e                	lhu	a5,8(a5)
    2302:	07c2                	slli	a5,a5,0x10
    2304:	83c1                	srli	a5,a5,0x10
    2306:	07c2                	slli	a5,a5,0x10
    2308:	87c1                	srai	a5,a5,0x10
    230a:	9bc1                	andi	a5,a5,-16
    230c:	07c2                	slli	a5,a5,0x10
    230e:	87c1                	srai	a5,a5,0x10
    2310:	0067e793          	ori	a5,a5,6
    2314:	01079713          	slli	a4,a5,0x10
    2318:	8741                	srai	a4,a4,0x10
    231a:	400047b7          	lui	a5,0x40004
    231e:	40078793          	addi	a5,a5,1024 # 40004400 <_eusrstack+0x1ffff400>
    2322:	0742                	slli	a4,a4,0x10
    2324:	8341                	srli	a4,a4,0x10
    2326:	a79a                	sh	a4,8(a5)
    2328:	400047b7          	lui	a5,0x40004
    232c:	40078793          	addi	a5,a5,1024 # 40004400 <_eusrstack+0x1ffff400>
    2330:	27de                	lhu	a5,12(a5)
    2332:	01079693          	slli	a3,a5,0x10
    2336:	82c1                	srli	a3,a3,0x10
    2338:	400047b7          	lui	a5,0x40004
    233c:	40078793          	addi	a5,a5,1024 # 40004400 <_eusrstack+0x1ffff400>
    2340:	6709                	lui	a4,0x2
    2342:	8f55                	or	a4,a4,a3
    2344:	0742                	slli	a4,a4,0x10
    2346:	8341                	srli	a4,a4,0x10
    2348:	a7da                	sh	a4,12(a5)
    234a:	400047b7          	lui	a5,0x40004
    234e:	40078793          	addi	a5,a5,1024 # 40004400 <_eusrstack+0x1ffff400>
    2352:	27de                	lhu	a5,12(a5)
    2354:	01079693          	slli	a3,a5,0x10
    2358:	82c1                	srli	a3,a3,0x10
    235a:	400047b7          	lui	a5,0x40004
    235e:	40078793          	addi	a5,a5,1024 # 40004400 <_eusrstack+0x1ffff400>
    2362:	777d                	lui	a4,0xfffff
    2364:	177d                	addi	a4,a4,-1
    2366:	8f75                	and	a4,a4,a3
    2368:	0742                	slli	a4,a4,0x10
    236a:	8341                	srli	a4,a4,0x10
    236c:	a7da                	sh	a4,12(a5)
    236e:	400047b7          	lui	a5,0x40004
    2372:	40078793          	addi	a5,a5,1024 # 40004400 <_eusrstack+0x1ffff400>
    2376:	27de                	lhu	a5,12(a5)
    2378:	01079693          	slli	a3,a5,0x10
    237c:	82c1                	srli	a3,a3,0x10
    237e:	400047b7          	lui	a5,0x40004
    2382:	40078793          	addi	a5,a5,1024 # 40004400 <_eusrstack+0x1ffff400>
    2386:	777d                	lui	a4,0xfffff
    2388:	7ff70713          	addi	a4,a4,2047 # fffff7ff <_eusrstack+0xdfffa7ff>
    238c:	8f75                	and	a4,a4,a3
    238e:	0742                	slli	a4,a4,0x10
    2390:	8341                	srli	a4,a4,0x10
    2392:	a7da                	sh	a4,12(a5)
    2394:	400047b7          	lui	a5,0x40004
    2398:	40078793          	addi	a5,a5,1024 # 40004400 <_eusrstack+0x1ffff400>
    239c:	27de                	lhu	a5,12(a5)
    239e:	01079713          	slli	a4,a5,0x10
    23a2:	8341                	srli	a4,a4,0x10
    23a4:	400047b7          	lui	a5,0x40004
    23a8:	40078793          	addi	a5,a5,1024 # 40004400 <_eusrstack+0x1ffff400>
    23ac:	bff77713          	andi	a4,a4,-1025
    23b0:	0742                	slli	a4,a4,0x10
    23b2:	8341                	srli	a4,a4,0x10
    23b4:	a7da                	sh	a4,12(a5)
    23b6:	400047b7          	lui	a5,0x40004
    23ba:	40078793          	addi	a5,a5,1024 # 40004400 <_eusrstack+0x1ffff400>
    23be:	27de                	lhu	a5,12(a5)
    23c0:	01079713          	slli	a4,a5,0x10
    23c4:	8341                	srli	a4,a4,0x10
    23c6:	400047b7          	lui	a5,0x40004
    23ca:	40078793          	addi	a5,a5,1024 # 40004400 <_eusrstack+0x1ffff400>
    23ce:	eff77713          	andi	a4,a4,-257
    23d2:	0742                	slli	a4,a4,0x10
    23d4:	8341                	srli	a4,a4,0x10
    23d6:	a7da                	sh	a4,12(a5)
    23d8:	400047b7          	lui	a5,0x40004
    23dc:	40078793          	addi	a5,a5,1024 # 40004400 <_eusrstack+0x1ffff400>
    23e0:	27de                	lhu	a5,12(a5)
    23e2:	01079713          	slli	a4,a5,0x10
    23e6:	8341                	srli	a4,a4,0x10
    23e8:	400047b7          	lui	a5,0x40004
    23ec:	40078793          	addi	a5,a5,1024 # 40004400 <_eusrstack+0x1ffff400>
    23f0:	f7f77713          	andi	a4,a4,-129
    23f4:	0742                	slli	a4,a4,0x10
    23f6:	8341                	srli	a4,a4,0x10
    23f8:	a7da                	sh	a4,12(a5)
    23fa:	400047b7          	lui	a5,0x40004
    23fe:	40078793          	addi	a5,a5,1024 # 40004400 <_eusrstack+0x1ffff400>
    2402:	27de                	lhu	a5,12(a5)
    2404:	01079713          	slli	a4,a5,0x10
    2408:	8341                	srli	a4,a4,0x10
    240a:	400047b7          	lui	a5,0x40004
    240e:	40078793          	addi	a5,a5,1024 # 40004400 <_eusrstack+0x1ffff400>
    2412:	fbf77713          	andi	a4,a4,-65
    2416:	0742                	slli	a4,a4,0x10
    2418:	8341                	srli	a4,a4,0x10
    241a:	a7da                	sh	a4,12(a5)
    241c:	400047b7          	lui	a5,0x40004
    2420:	40078793          	addi	a5,a5,1024 # 40004400 <_eusrstack+0x1ffff400>
    2424:	27de                	lhu	a5,12(a5)
    2426:	01079713          	slli	a4,a5,0x10
    242a:	8341                	srli	a4,a4,0x10
    242c:	400047b7          	lui	a5,0x40004
    2430:	40078793          	addi	a5,a5,1024 # 40004400 <_eusrstack+0x1ffff400>
    2434:	02076713          	ori	a4,a4,32
    2438:	0742                	slli	a4,a4,0x10
    243a:	8341                	srli	a4,a4,0x10
    243c:	a7da                	sh	a4,12(a5)
    243e:	400047b7          	lui	a5,0x40004
    2442:	40078793          	addi	a5,a5,1024 # 40004400 <_eusrstack+0x1ffff400>
    2446:	27de                	lhu	a5,12(a5)
    2448:	01079713          	slli	a4,a5,0x10
    244c:	8341                	srli	a4,a4,0x10
    244e:	400047b7          	lui	a5,0x40004
    2452:	40078793          	addi	a5,a5,1024 # 40004400 <_eusrstack+0x1ffff400>
    2456:	9b3d                	andi	a4,a4,-17
    2458:	0742                	slli	a4,a4,0x10
    245a:	8341                	srli	a4,a4,0x10
    245c:	a7da                	sh	a4,12(a5)
    245e:	400047b7          	lui	a5,0x40004
    2462:	40078793          	addi	a5,a5,1024 # 40004400 <_eusrstack+0x1ffff400>
    2466:	27de                	lhu	a5,12(a5)
    2468:	01079713          	slli	a4,a5,0x10
    246c:	8341                	srli	a4,a4,0x10
    246e:	400047b7          	lui	a5,0x40004
    2472:	40078793          	addi	a5,a5,1024 # 40004400 <_eusrstack+0x1ffff400>
    2476:	00876713          	ori	a4,a4,8
    247a:	0742                	slli	a4,a4,0x10
    247c:	8341                	srli	a4,a4,0x10
    247e:	a7da                	sh	a4,12(a5)
    2480:	400047b7          	lui	a5,0x40004
    2484:	40078793          	addi	a5,a5,1024 # 40004400 <_eusrstack+0x1ffff400>
    2488:	27de                	lhu	a5,12(a5)
    248a:	01079713          	slli	a4,a5,0x10
    248e:	8341                	srli	a4,a4,0x10
    2490:	400047b7          	lui	a5,0x40004
    2494:	40078793          	addi	a5,a5,1024 # 40004400 <_eusrstack+0x1ffff400>
    2498:	00476713          	ori	a4,a4,4
    249c:	0742                	slli	a4,a4,0x10
    249e:	8341                	srli	a4,a4,0x10
    24a0:	a7da                	sh	a4,12(a5)
    24a2:	400047b7          	lui	a5,0x40004
    24a6:	40078793          	addi	a5,a5,1024 # 40004400 <_eusrstack+0x1ffff400>
    24aa:	27de                	lhu	a5,12(a5)
    24ac:	01079713          	slli	a4,a5,0x10
    24b0:	8341                	srli	a4,a4,0x10
    24b2:	400047b7          	lui	a5,0x40004
    24b6:	40078793          	addi	a5,a5,1024 # 40004400 <_eusrstack+0x1ffff400>
    24ba:	9b75                	andi	a4,a4,-3
    24bc:	0742                	slli	a4,a4,0x10
    24be:	8341                	srli	a4,a4,0x10
    24c0:	a7da                	sh	a4,12(a5)
    24c2:	400047b7          	lui	a5,0x40004
    24c6:	40078793          	addi	a5,a5,1024 # 40004400 <_eusrstack+0x1ffff400>
    24ca:	27de                	lhu	a5,12(a5)
    24cc:	01079713          	slli	a4,a5,0x10
    24d0:	8341                	srli	a4,a4,0x10
    24d2:	400047b7          	lui	a5,0x40004
    24d6:	40078793          	addi	a5,a5,1024 # 40004400 <_eusrstack+0x1ffff400>
    24da:	9b79                	andi	a4,a4,-2
    24dc:	0742                	slli	a4,a4,0x10
    24de:	8341                	srli	a4,a4,0x10
    24e0:	a7da                	sh	a4,12(a5)
    24e2:	400047b7          	lui	a5,0x40004
    24e6:	40078793          	addi	a5,a5,1024 # 40004400 <_eusrstack+0x1ffff400>
    24ea:	00079823          	sh	zero,16(a5)
    24ee:	400047b7          	lui	a5,0x40004
    24f2:	40078793          	addi	a5,a5,1024 # 40004400 <_eusrstack+0x1ffff400>
    24f6:	2b9e                	lhu	a5,16(a5)
    24f8:	01079693          	slli	a3,a5,0x10
    24fc:	82c1                	srli	a3,a3,0x10
    24fe:	400047b7          	lui	a5,0x40004
    2502:	40078793          	addi	a5,a5,1024 # 40004400 <_eusrstack+0x1ffff400>
    2506:	7775                	lui	a4,0xffffd
    2508:	177d                	addi	a4,a4,-1
    250a:	8f75                	and	a4,a4,a3
    250c:	0742                	slli	a4,a4,0x10
    250e:	8341                	srli	a4,a4,0x10
    2510:	ab9a                	sh	a4,16(a5)
    2512:	400047b7          	lui	a5,0x40004
    2516:	40078793          	addi	a5,a5,1024 # 40004400 <_eusrstack+0x1ffff400>
    251a:	00079a23          	sh	zero,20(a5)
    251e:	400047b7          	lui	a5,0x40004
    2522:	40078793          	addi	a5,a5,1024 # 40004400 <_eusrstack+0x1ffff400>
    2526:	00079c23          	sh	zero,24(a5)
    252a:	03600793          	li	a5,54
    252e:	fef42223          	sw	a5,-28(s0)
    2532:	fe442783          	lw	a5,-28(s0)
    2536:	8bfd                	andi	a5,a5,31
    2538:	4705                	li	a4,1
    253a:	00f716b3          	sll	a3,a4,a5
    253e:	e000e737          	lui	a4,0xe000e
    2542:	fe442783          	lw	a5,-28(s0)
    2546:	8395                	srli	a5,a5,0x5
    2548:	04078793          	addi	a5,a5,64
    254c:	078a                	slli	a5,a5,0x2
    254e:	97ba                	add	a5,a5,a4
    2550:	c394                	sw	a3,0(a5)
    2552:	03600793          	li	a5,54
    2556:	fef42623          	sw	a5,-20(s0)
    255a:	fe0405a3          	sb	zero,-21(s0)
    255e:	e000e737          	lui	a4,0xe000e
    2562:	fec42783          	lw	a5,-20(s0)
    2566:	97ba                	add	a5,a5,a4
    2568:	feb44703          	lbu	a4,-21(s0)
    256c:	40e78023          	sb	a4,1024(a5)
    2570:	0001                	nop
    2572:	4472                	lw	s0,28(sp)
    2574:	6105                	addi	sp,sp,32
    2576:	8082                	ret

00002578 <RVMSIS_USART_Transmit>:
    2578:	7179                	addi	sp,sp,-48
    257a:	d622                	sw	s0,44(sp)
    257c:	1800                	addi	s0,sp,48
    257e:	fca42e23          	sw	a0,-36(s0)
    2582:	fcb42c23          	sw	a1,-40(s0)
    2586:	87b2                	mv	a5,a2
    2588:	fcd42823          	sw	a3,-48(s0)
    258c:	fcf41b23          	sh	a5,-42(s0)
    2590:	fe041723          	sh	zero,-18(s0)
    2594:	a0a9                	j	25de <RVMSIS_USART_Transmit+0x66>
    2596:	fd042703          	lw	a4,-48(s0)
    259a:	84e1a223          	sw	a4,-1980(gp) # 20000044 <Timeout_counter_ms>
    259e:	a031                	j	25aa <RVMSIS_USART_Transmit+0x32>
    25a0:	8441a783          	lw	a5,-1980(gp) # 20000044 <Timeout_counter_ms>
    25a4:	e399                	bnez	a5,25aa <RVMSIS_USART_Transmit+0x32>
    25a6:	4781                	li	a5,0
    25a8:	a0a5                	j	2610 <RVMSIS_USART_Transmit+0x98>
    25aa:	fdc42783          	lw	a5,-36(s0)
    25ae:	239e                	lhu	a5,0(a5)
    25b0:	07c2                	slli	a5,a5,0x10
    25b2:	83c1                	srli	a5,a5,0x10
    25b4:	0807f793          	andi	a5,a5,128
    25b8:	d7e5                	beqz	a5,25a0 <RVMSIS_USART_Transmit+0x28>
    25ba:	fd842783          	lw	a5,-40(s0)
    25be:	00178713          	addi	a4,a5,1
    25c2:	fce42c23          	sw	a4,-40(s0)
    25c6:	239c                	lbu	a5,0(a5)
    25c8:	01079713          	slli	a4,a5,0x10
    25cc:	8341                	srli	a4,a4,0x10
    25ce:	fdc42783          	lw	a5,-36(s0)
    25d2:	a3da                	sh	a4,4(a5)
    25d4:	fee45783          	lhu	a5,-18(s0)
    25d8:	0785                	addi	a5,a5,1
    25da:	fef41723          	sh	a5,-18(s0)
    25de:	fee45703          	lhu	a4,-18(s0)
    25e2:	fd645783          	lhu	a5,-42(s0)
    25e6:	faf768e3          	bltu	a4,a5,2596 <RVMSIS_USART_Transmit+0x1e>
    25ea:	fd042703          	lw	a4,-48(s0)
    25ee:	84e1a223          	sw	a4,-1980(gp) # 20000044 <Timeout_counter_ms>
    25f2:	a031                	j	25fe <RVMSIS_USART_Transmit+0x86>
    25f4:	8441a783          	lw	a5,-1980(gp) # 20000044 <Timeout_counter_ms>
    25f8:	e399                	bnez	a5,25fe <RVMSIS_USART_Transmit+0x86>
    25fa:	4781                	li	a5,0
    25fc:	a811                	j	2610 <RVMSIS_USART_Transmit+0x98>
    25fe:	fdc42783          	lw	a5,-36(s0)
    2602:	239e                	lhu	a5,0(a5)
    2604:	07c2                	slli	a5,a5,0x10
    2606:	83c1                	srli	a5,a5,0x10
    2608:	0407f793          	andi	a5,a5,64
    260c:	d7e5                	beqz	a5,25f4 <RVMSIS_USART_Transmit+0x7c>
    260e:	4785                	li	a5,1
    2610:	853e                	mv	a0,a5
    2612:	5432                	lw	s0,44(sp)
    2614:	6145                	addi	sp,sp,48
    2616:	8082                	ret

00002618 <ModbusRTU_Transmit>:
    2618:	7179                	addi	sp,sp,-48
    261a:	d622                	sw	s0,44(sp)
    261c:	1800                	addi	s0,sp,48
    261e:	fca42e23          	sw	a0,-36(s0)
    2622:	fcb42c23          	sw	a1,-40(s0)
    2626:	87b2                	mv	a5,a2
    2628:	fcd42823          	sw	a3,-48(s0)
    262c:	fcf41b23          	sh	a5,-42(s0)
    2630:	400117b7          	lui	a5,0x40011
    2634:	80078793          	addi	a5,a5,-2048 # 40010800 <_eusrstack+0x2000b800>
    2638:	4709                	li	a4,2
    263a:	cb98                	sw	a4,16(a5)
    263c:	fe041723          	sh	zero,-18(s0)
    2640:	a8a1                	j	2698 <ModbusRTU_Transmit+0x80>
    2642:	fd042703          	lw	a4,-48(s0)
    2646:	84e1a223          	sw	a4,-1980(gp) # 20000044 <Timeout_counter_ms>
    264a:	a829                	j	2664 <ModbusRTU_Transmit+0x4c>
    264c:	8441a783          	lw	a5,-1980(gp) # 20000044 <Timeout_counter_ms>
    2650:	eb91                	bnez	a5,2664 <ModbusRTU_Transmit+0x4c>
    2652:	400117b7          	lui	a5,0x40011
    2656:	80078793          	addi	a5,a5,-2048 # 40010800 <_eusrstack+0x2000b800>
    265a:	00020737          	lui	a4,0x20
    265e:	cb98                	sw	a4,16(a5)
    2660:	4781                	li	a5,0
    2662:	a051                	j	26e6 <ModbusRTU_Transmit+0xce>
    2664:	fdc42783          	lw	a5,-36(s0)
    2668:	239e                	lhu	a5,0(a5)
    266a:	07c2                	slli	a5,a5,0x10
    266c:	83c1                	srli	a5,a5,0x10
    266e:	0807f793          	andi	a5,a5,128
    2672:	dfe9                	beqz	a5,264c <ModbusRTU_Transmit+0x34>
    2674:	fd842783          	lw	a5,-40(s0)
    2678:	00178713          	addi	a4,a5,1
    267c:	fce42c23          	sw	a4,-40(s0)
    2680:	239c                	lbu	a5,0(a5)
    2682:	01079713          	slli	a4,a5,0x10
    2686:	8341                	srli	a4,a4,0x10
    2688:	fdc42783          	lw	a5,-36(s0)
    268c:	a3da                	sh	a4,4(a5)
    268e:	fee45783          	lhu	a5,-18(s0)
    2692:	0785                	addi	a5,a5,1
    2694:	fef41723          	sh	a5,-18(s0)
    2698:	fee45703          	lhu	a4,-18(s0)
    269c:	fd645783          	lhu	a5,-42(s0)
    26a0:	faf761e3          	bltu	a4,a5,2642 <ModbusRTU_Transmit+0x2a>
    26a4:	fd042703          	lw	a4,-48(s0)
    26a8:	84e1a223          	sw	a4,-1980(gp) # 20000044 <Timeout_counter_ms>
    26ac:	a829                	j	26c6 <ModbusRTU_Transmit+0xae>
    26ae:	8441a783          	lw	a5,-1980(gp) # 20000044 <Timeout_counter_ms>
    26b2:	eb91                	bnez	a5,26c6 <ModbusRTU_Transmit+0xae>
    26b4:	400117b7          	lui	a5,0x40011
    26b8:	80078793          	addi	a5,a5,-2048 # 40010800 <_eusrstack+0x2000b800>
    26bc:	00020737          	lui	a4,0x20
    26c0:	cb98                	sw	a4,16(a5)
    26c2:	4781                	li	a5,0
    26c4:	a00d                	j	26e6 <ModbusRTU_Transmit+0xce>
    26c6:	fdc42783          	lw	a5,-36(s0)
    26ca:	239e                	lhu	a5,0(a5)
    26cc:	07c2                	slli	a5,a5,0x10
    26ce:	83c1                	srli	a5,a5,0x10
    26d0:	0407f793          	andi	a5,a5,64
    26d4:	dfe9                	beqz	a5,26ae <ModbusRTU_Transmit+0x96>
    26d6:	400117b7          	lui	a5,0x40011
    26da:	80078793          	addi	a5,a5,-2048 # 40010800 <_eusrstack+0x2000b800>
    26de:	00020737          	lui	a4,0x20
    26e2:	cb98                	sw	a4,16(a5)
    26e4:	4785                	li	a5,1
    26e6:	853e                	mv	a0,a5
    26e8:	5432                	lw	s0,44(sp)
    26ea:	6145                	addi	sp,sp,48
    26ec:	8082                	ret

000026ee <Task1_MQTT_Send>:
    26ee:	1141                	addi	sp,sp,-16
    26f0:	c606                	sw	ra,12(sp)
    26f2:	c422                	sw	s0,8(sp)
    26f4:	0800                	addi	s0,sp,16
    26f6:	80f1c703          	lbu	a4,-2033(gp) # 2000000f <NETWORK_Status>
    26fa:	478d                	li	a5,3
    26fc:	0cf71863          	bne	a4,a5,27cc <Task1_MQTT_Send+0xde>
    2700:	9581c783          	lbu	a5,-1704(gp) # 20000158 <flags_tx_data_ready>
    2704:	0a078463          	beqz	a5,27ac <Task1_MQTT_Send+0xbe>
    2708:	8101a703          	lw	a4,-2032(gp) # 20000010 <ABB_E31_Total_active_energy>
    270c:	ca418613          	addi	a2,gp,-860 # 200004a4 <MQTT_Arr>
    2710:	85ba                	mv	a1,a4
    2712:	4505                	li	a0,1
    2714:	854fe0ef          	jal	ra,768 <UART_MQTT_Send_data_float>
    2718:	8141a703          	lw	a4,-2028(gp) # 20000014 <ABB_E31_Active_energy_1>
    271c:	ca418613          	addi	a2,gp,-860 # 200004a4 <MQTT_Arr>
    2720:	85ba                	mv	a1,a4
    2722:	4509                	li	a0,2
    2724:	844fe0ef          	jal	ra,768 <UART_MQTT_Send_data_float>
    2728:	8181a703          	lw	a4,-2024(gp) # 20000018 <ABB_E31_Active_energy_2>
    272c:	ca418613          	addi	a2,gp,-860 # 200004a4 <MQTT_Arr>
    2730:	85ba                	mv	a1,a4
    2732:	450d                	li	a0,3
    2734:	834fe0ef          	jal	ra,768 <UART_MQTT_Send_data_float>
    2738:	81c1a703          	lw	a4,-2020(gp) # 2000001c <ABB_E31_Active_energy_3>
    273c:	ca418613          	addi	a2,gp,-860 # 200004a4 <MQTT_Arr>
    2740:	85ba                	mv	a1,a4
    2742:	4511                	li	a0,4
    2744:	824fe0ef          	jal	ra,768 <UART_MQTT_Send_data_float>
    2748:	8201a703          	lw	a4,-2016(gp) # 20000020 <ABB_E31_Active_energy_4>
    274c:	ca418613          	addi	a2,gp,-860 # 200004a4 <MQTT_Arr>
    2750:	85ba                	mv	a1,a4
    2752:	4515                	li	a0,5
    2754:	814fe0ef          	jal	ra,768 <UART_MQTT_Send_data_float>
    2758:	8241a703          	lw	a4,-2012(gp) # 20000024 <ABB_E31_Voltage>
    275c:	ca418613          	addi	a2,gp,-860 # 200004a4 <MQTT_Arr>
    2760:	85ba                	mv	a1,a4
    2762:	4519                	li	a0,6
    2764:	804fe0ef          	jal	ra,768 <UART_MQTT_Send_data_float>
    2768:	8281a703          	lw	a4,-2008(gp) # 20000028 <ABB_E31_Amp>
    276c:	ca418613          	addi	a2,gp,-860 # 200004a4 <MQTT_Arr>
    2770:	85ba                	mv	a1,a4
    2772:	451d                	li	a0,7
    2774:	ff5fd0ef          	jal	ra,768 <UART_MQTT_Send_data_float>
    2778:	82c1a703          	lw	a4,-2004(gp) # 2000002c <ABB_E31_Active_power>
    277c:	ca418613          	addi	a2,gp,-860 # 200004a4 <MQTT_Arr>
    2780:	85ba                	mv	a1,a4
    2782:	4521                	li	a0,8
    2784:	fe5fd0ef          	jal	ra,768 <UART_MQTT_Send_data_float>
    2788:	8301a703          	lw	a4,-2000(gp) # 20000030 <ABB_E31_Power_factor>
    278c:	ca418613          	addi	a2,gp,-860 # 200004a4 <MQTT_Arr>
    2790:	85ba                	mv	a1,a4
    2792:	4525                	li	a0,9
    2794:	fd5fd0ef          	jal	ra,768 <UART_MQTT_Send_data_float>
    2798:	8341a703          	lw	a4,-1996(gp) # 20000034 <ABB_E31_Frequency>
    279c:	ca418613          	addi	a2,gp,-860 # 200004a4 <MQTT_Arr>
    27a0:	85ba                	mv	a1,a4
    27a2:	4529                	li	a0,10
    27a4:	fc5fd0ef          	jal	ra,768 <UART_MQTT_Send_data_float>
    27a8:	94018c23          	sb	zero,-1704(gp) # 20000158 <flags_tx_data_ready>
    27ac:	95818793          	addi	a5,gp,-1704 # 20000158 <flags_tx_data_ready>
    27b0:	339c                	lbu	a5,1(a5)
    27b2:	cf89                	beqz	a5,27cc <Task1_MQTT_Send+0xde>
    27b4:	83819703          	lh	a4,-1992(gp) # 20000038 <ABB_E31_Temperature>
    27b8:	ca418613          	addi	a2,gp,-860 # 200004a4 <MQTT_Arr>
    27bc:	85ba                	mv	a1,a4
    27be:	452d                	li	a0,11
    27c0:	e61fd0ef          	jal	ra,620 <UART_MQTT_Send_data_int16_t>
    27c4:	95818793          	addi	a5,gp,-1704 # 20000158 <flags_tx_data_ready>
    27c8:	000780a3          	sb	zero,1(a5)
    27cc:	0001                	nop
    27ce:	40b2                	lw	ra,12(sp)
    27d0:	4422                	lw	s0,8(sp)
    27d2:	0141                	addi	sp,sp,16
    27d4:	8082                	ret

000027d6 <MQTT_Reveieve>:
    27d6:	1141                	addi	sp,sp,-16
    27d8:	c622                	sw	s0,12(sp)
    27da:	0800                	addi	s0,sp,16
    27dc:	0001                	nop
    27de:	4432                	lw	s0,12(sp)
    27e0:	0141                	addi	sp,sp,16
    27e2:	8082                	ret

000027e4 <main>:
    27e4:	1141                	addi	sp,sp,-16
    27e6:	c606                	sw	ra,12(sp)
    27e8:	c422                	sw	s0,8(sp)
    27ea:	0800                	addi	s0,sp,16
    27ec:	d81fe0ef          	jal	ra,156c <RVMSIS_Debug_init>
    27f0:	dedfe0ef          	jal	ra,15dc <RVMSIS_RCC_SystemClock_144MHz>
    27f4:	f65fe0ef          	jal	ra,1758 <RVMSIS_SysTick_Timer_init>
    27f8:	a1bff0ef          	jal	ra,2212 <RVMSIS_USART2_Init>
    27fc:	ebaff0ef          	jal	ra,1eb6 <RVMSIS_USART1_Init>
    2800:	470d                	li	a4,3
    2802:	4681                	li	a3,0
    2804:	4601                	li	a2,0
    2806:	4585                	li	a1,1
    2808:	400117b7          	lui	a5,0x40011
    280c:	80078513          	addi	a0,a5,-2048 # 40010800 <_eusrstack+0x2000b800>
    2810:	baeff0ef          	jal	ra,1bbe <RVMSIS_GPIO_init>
    2814:	400117b7          	lui	a5,0x40011
    2818:	80078793          	addi	a5,a5,-2048 # 40010800 <_eusrstack+0x2000b800>
    281c:	00020737          	lui	a4,0x20
    2820:	cb98                	sw	a4,16(a5)
    2822:	470d                	li	a4,3
    2824:	4681                	li	a3,0
    2826:	4601                	li	a2,0
    2828:	45a1                	li	a1,8
    282a:	400117b7          	lui	a5,0x40011
    282e:	80078513          	addi	a0,a5,-2048 # 40010800 <_eusrstack+0x2000b800>
    2832:	b8cff0ef          	jal	ra,1bbe <RVMSIS_GPIO_init>
    2836:	470d                	li	a4,3
    2838:	4681                	li	a3,0
    283a:	4601                	li	a2,0
    283c:	45bd                	li	a1,15
    283e:	400117b7          	lui	a5,0x40011
    2842:	c0078513          	addi	a0,a5,-1024 # 40010c00 <_eusrstack+0x2000bc00>
    2846:	b78ff0ef          	jal	ra,1bbe <RVMSIS_GPIO_init>
    284a:	cceff0ef          	jal	ra,1d18 <RVMSIS_TIM3_init>
    284e:	0c800513          	li	a0,200
    2852:	9ddfd0ef          	jal	ra,22e <ESP8266_Reset>
    2856:	4515                	li	a0,5
    2858:	fd1fe0ef          	jal	ra,1828 <Delay_ms>
    285c:	809fe0ef          	jal	ra,1064 <ModbusRTU_Master_pool_run>
    2860:	a17fd0ef          	jal	ra,276 <ESP8266_Indication_run>
    2864:	8521c783          	lbu	a5,-1966(gp) # 20000052 <Task1>
    2868:	dbf5                	beqz	a5,285c <main+0x78>
    286a:	3551                	jal	26ee <Task1_MQTT_Send>
    286c:	84018923          	sb	zero,-1966(gp) # 20000052 <Task1>
    2870:	7d000593          	li	a1,2000
    2874:	85418513          	addi	a0,gp,-1964 # 20000054 <MQTT_Send_Timer>
    2878:	8bdfe0ef          	jal	ra,1134 <Software_timer>
    287c:	b7c5                	j	285c <main+0x78>

0000287e <__muldf3>:
    287e:	7139                	addi	sp,sp,-64
    2880:	d84a                	sw	s2,48(sp)
    2882:	0145d913          	srli	s2,a1,0x14
    2886:	d64e                	sw	s3,44(sp)
    2888:	d452                	sw	s4,40(sp)
    288a:	d256                	sw	s5,36(sp)
    288c:	00c59993          	slli	s3,a1,0xc
    2890:	de06                	sw	ra,60(sp)
    2892:	dc22                	sw	s0,56(sp)
    2894:	da26                	sw	s1,52(sp)
    2896:	d05a                	sw	s6,32(sp)
    2898:	ce5e                	sw	s7,28(sp)
    289a:	7ff97913          	andi	s2,s2,2047
    289e:	8a2a                	mv	s4,a0
    28a0:	00c9d993          	srli	s3,s3,0xc
    28a4:	01f5da93          	srli	s5,a1,0x1f
    28a8:	0e090d63          	beqz	s2,29a2 <__muldf3+0x124>
    28ac:	7ff00793          	li	a5,2047
    28b0:	18f90463          	beq	s2,a5,2a38 <__muldf3+0x1ba>
    28b4:	01d55413          	srli	s0,a0,0x1d
    28b8:	098e                	slli	s3,s3,0x3
    28ba:	013469b3          	or	s3,s0,s3
    28be:	00800437          	lui	s0,0x800
    28c2:	0089e433          	or	s0,s3,s0
    28c6:	00351493          	slli	s1,a0,0x3
    28ca:	c0190913          	addi	s2,s2,-1023
    28ce:	4981                	li	s3,0
    28d0:	4b81                	li	s7,0
    28d2:	0146d713          	srli	a4,a3,0x14
    28d6:	00c69a13          	slli	s4,a3,0xc
    28da:	7ff77713          	andi	a4,a4,2047
    28de:	85b2                	mv	a1,a2
    28e0:	00ca5a13          	srli	s4,s4,0xc
    28e4:	01f6db13          	srli	s6,a3,0x1f
    28e8:	10070a63          	beqz	a4,29fc <__muldf3+0x17e>
    28ec:	7ff00793          	li	a5,2047
    28f0:	04f70363          	beq	a4,a5,2936 <__muldf3+0xb8>
    28f4:	01d65793          	srli	a5,a2,0x1d
    28f8:	0a0e                	slli	s4,s4,0x3
    28fa:	0147ea33          	or	s4,a5,s4
    28fe:	c0170713          	addi	a4,a4,-1023 # 1fc01 <_data_lma+0x1c9d1>
    2902:	008007b7          	lui	a5,0x800
    2906:	00fa67b3          	or	a5,s4,a5
    290a:	00361593          	slli	a1,a2,0x3
    290e:	993a                	add	s2,s2,a4
    2910:	4881                	li	a7,0
    2912:	016ac733          	xor	a4,s5,s6
    2916:	46bd                	li	a3,15
    2918:	853a                	mv	a0,a4
    291a:	00190813          	addi	a6,s2,1
    291e:	1736e663          	bltu	a3,s3,2a8a <__muldf3+0x20c>
    2922:	00000617          	auipc	a2,0x0
    2926:	7ce60613          	addi	a2,a2,1998 # 30f0 <__clzsi2+0xb4>
    292a:	098a                	slli	s3,s3,0x2
    292c:	99b2                	add	s3,s3,a2
    292e:	0009a683          	lw	a3,0(s3)
    2932:	96b2                	add	a3,a3,a2
    2934:	8682                	jr	a3
    2936:	00ca67b3          	or	a5,s4,a2
    293a:	7ff90913          	addi	s2,s2,2047
    293e:	12079763          	bnez	a5,2a6c <__muldf3+0x1ee>
    2942:	0029e993          	ori	s3,s3,2
    2946:	4581                	li	a1,0
    2948:	4889                	li	a7,2
    294a:	b7e1                	j	2912 <__muldf3+0x94>
    294c:	4701                	li	a4,0
    294e:	7ff00793          	li	a5,2047
    2952:	00080437          	lui	s0,0x80
    2956:	4481                	li	s1,0
    2958:	0432                	slli	s0,s0,0xc
    295a:	07d2                	slli	a5,a5,0x14
    295c:	8031                	srli	s0,s0,0xc
    295e:	077e                	slli	a4,a4,0x1f
    2960:	8c5d                	or	s0,s0,a5
    2962:	8c59                	or	s0,s0,a4
    2964:	85a2                	mv	a1,s0
    2966:	50f2                	lw	ra,60(sp)
    2968:	5462                	lw	s0,56(sp)
    296a:	8526                	mv	a0,s1
    296c:	5942                	lw	s2,48(sp)
    296e:	54d2                	lw	s1,52(sp)
    2970:	59b2                	lw	s3,44(sp)
    2972:	5a22                	lw	s4,40(sp)
    2974:	5a92                	lw	s5,36(sp)
    2976:	5b02                	lw	s6,32(sp)
    2978:	4bf2                	lw	s7,28(sp)
    297a:	6121                	addi	sp,sp,64
    297c:	8082                	ret
    297e:	855a                	mv	a0,s6
    2980:	843e                	mv	s0,a5
    2982:	84ae                	mv	s1,a1
    2984:	8bc6                	mv	s7,a7
    2986:	4789                	li	a5,2
    2988:	0efb8b63          	beq	s7,a5,2a7e <__muldf3+0x200>
    298c:	478d                	li	a5,3
    298e:	fafb8fe3          	beq	s7,a5,294c <__muldf3+0xce>
    2992:	4785                	li	a5,1
    2994:	872a                	mv	a4,a0
    2996:	38fb9a63          	bne	s7,a5,2d2a <__muldf3+0x4ac>
    299a:	4781                	li	a5,0
    299c:	4401                	li	s0,0
    299e:	4481                	li	s1,0
    29a0:	bf65                	j	2958 <__muldf3+0xda>
    29a2:	00a9e433          	or	s0,s3,a0
    29a6:	cc55                	beqz	s0,2a62 <__muldf3+0x1e4>
    29a8:	c636                	sw	a3,12(sp)
    29aa:	c432                	sw	a2,8(sp)
    29ac:	2a098963          	beqz	s3,2c5e <__muldf3+0x3e0>
    29b0:	854e                	mv	a0,s3
    29b2:	2569                	jal	303c <__clzsi2>
    29b4:	4622                	lw	a2,8(sp)
    29b6:	46b2                	lw	a3,12(sp)
    29b8:	87aa                	mv	a5,a0
    29ba:	ff550713          	addi	a4,a0,-11
    29be:	4475                	li	s0,29
    29c0:	ff878493          	addi	s1,a5,-8 # 7ffff8 <_data_lma+0x7fcdc8>
    29c4:	8c19                	sub	s0,s0,a4
    29c6:	009999b3          	sll	s3,s3,s1
    29ca:	008a5433          	srl	s0,s4,s0
    29ce:	01346433          	or	s0,s0,s3
    29d2:	009a14b3          	sll	s1,s4,s1
    29d6:	0146d713          	srli	a4,a3,0x14
    29da:	c0d00913          	li	s2,-1011
    29de:	00c69a13          	slli	s4,a3,0xc
    29e2:	7ff77713          	andi	a4,a4,2047
    29e6:	40f90933          	sub	s2,s2,a5
    29ea:	4981                	li	s3,0
    29ec:	4b81                	li	s7,0
    29ee:	85b2                	mv	a1,a2
    29f0:	00ca5a13          	srli	s4,s4,0xc
    29f4:	01f6db13          	srli	s6,a3,0x1f
    29f8:	ee071ae3          	bnez	a4,28ec <__muldf3+0x6e>
    29fc:	00ca67b3          	or	a5,s4,a2
    2a00:	c7a9                	beqz	a5,2a4a <__muldf3+0x1cc>
    2a02:	220a0e63          	beqz	s4,2c3e <__muldf3+0x3c0>
    2a06:	8552                	mv	a0,s4
    2a08:	c432                	sw	a2,8(sp)
    2a0a:	2d0d                	jal	303c <__clzsi2>
    2a0c:	4622                	lw	a2,8(sp)
    2a0e:	872a                	mv	a4,a0
    2a10:	ff550693          	addi	a3,a0,-11
    2a14:	47f5                	li	a5,29
    2a16:	ff870593          	addi	a1,a4,-8
    2a1a:	8f95                	sub	a5,a5,a3
    2a1c:	00ba1a33          	sll	s4,s4,a1
    2a20:	00f657b3          	srl	a5,a2,a5
    2a24:	0147e7b3          	or	a5,a5,s4
    2a28:	00b615b3          	sll	a1,a2,a1
    2a2c:	40e90933          	sub	s2,s2,a4
    2a30:	c0d90913          	addi	s2,s2,-1011
    2a34:	4881                	li	a7,0
    2a36:	bdf1                	j	2912 <__muldf3+0x94>
    2a38:	00a9e433          	or	s0,s3,a0
    2a3c:	ec01                	bnez	s0,2a54 <__muldf3+0x1d6>
    2a3e:	49a1                	li	s3,8
    2a40:	4481                	li	s1,0
    2a42:	7ff00913          	li	s2,2047
    2a46:	4b89                	li	s7,2
    2a48:	b569                	j	28d2 <__muldf3+0x54>
    2a4a:	0019e993          	ori	s3,s3,1
    2a4e:	4581                	li	a1,0
    2a50:	4885                	li	a7,1
    2a52:	b5c1                	j	2912 <__muldf3+0x94>
    2a54:	844e                	mv	s0,s3
    2a56:	84aa                	mv	s1,a0
    2a58:	49b1                	li	s3,12
    2a5a:	7ff00913          	li	s2,2047
    2a5e:	4b8d                	li	s7,3
    2a60:	bd8d                	j	28d2 <__muldf3+0x54>
    2a62:	4991                	li	s3,4
    2a64:	4481                	li	s1,0
    2a66:	4901                	li	s2,0
    2a68:	4b85                	li	s7,1
    2a6a:	b5a5                	j	28d2 <__muldf3+0x54>
    2a6c:	0039e993          	ori	s3,s3,3
    2a70:	87d2                	mv	a5,s4
    2a72:	488d                	li	a7,3
    2a74:	bd79                	j	2912 <__muldf3+0x94>
    2a76:	4789                	li	a5,2
    2a78:	8556                	mv	a0,s5
    2a7a:	f0fb99e3          	bne	s7,a5,298c <__muldf3+0x10e>
    2a7e:	872a                	mv	a4,a0
    2a80:	7ff00793          	li	a5,2047
    2a84:	4401                	li	s0,0
    2a86:	4481                	li	s1,0
    2a88:	bdc1                	j	2958 <__muldf3+0xda>
    2a8a:	6ec1                	lui	t4,0x10
    2a8c:	fffe8613          	addi	a2,t4,-1 # ffff <_data_lma+0xcdcf>
    2a90:	0104d693          	srli	a3,s1,0x10
    2a94:	0105de13          	srli	t3,a1,0x10
    2a98:	8cf1                	and	s1,s1,a2
    2a9a:	8df1                	and	a1,a1,a2
    2a9c:	02958633          	mul	a2,a1,s1
    2aa0:	02b68333          	mul	t1,a3,a1
    2aa4:	01065893          	srli	a7,a2,0x10
    2aa8:	029e0533          	mul	a0,t3,s1
    2aac:	951a                	add	a0,a0,t1
    2aae:	98aa                	add	a7,a7,a0
    2ab0:	03c682b3          	mul	t0,a3,t3
    2ab4:	0068f363          	bgeu	a7,t1,2aba <__muldf3+0x23c>
    2ab8:	92f6                	add	t0,t0,t4
    2aba:	6fc1                	lui	t6,0x10
    2abc:	ffff8313          	addi	t1,t6,-1 # ffff <_data_lma+0xcdcf>
    2ac0:	0067f533          	and	a0,a5,t1
    2ac4:	0107d393          	srli	t2,a5,0x10
    2ac8:	0068f7b3          	and	a5,a7,t1
    2acc:	07c2                	slli	a5,a5,0x10
    2ace:	00667333          	and	t1,a2,t1
    2ad2:	933e                	add	t1,t1,a5
    2ad4:	02950633          	mul	a2,a0,s1
    2ad8:	0108d893          	srli	a7,a7,0x10
    2adc:	02a687b3          	mul	a5,a3,a0
    2ae0:	01065f13          	srli	t5,a2,0x10
    2ae4:	029384b3          	mul	s1,t2,s1
    2ae8:	94be                	add	s1,s1,a5
    2aea:	94fa                	add	s1,s1,t5
    2aec:	02768eb3          	mul	t4,a3,t2
    2af0:	00f4f363          	bgeu	s1,a5,2af6 <__muldf3+0x278>
    2af4:	9efe                	add	t4,t4,t6
    2af6:	6a41                	lui	s4,0x10
    2af8:	fffa0793          	addi	a5,s4,-1 # ffff <_data_lma+0xcdcf>
    2afc:	01045f93          	srli	t6,s0,0x10
    2b00:	00f476b3          	and	a3,s0,a5
    2b04:	00f4f9b3          	and	s3,s1,a5
    2b08:	8e7d                	and	a2,a2,a5
    2b0a:	80c1                	srli	s1,s1,0x10
    2b0c:	02d58433          	mul	s0,a1,a3
    2b10:	09c2                	slli	s3,s3,0x10
    2b12:	01d48f33          	add	t5,s1,t4
    2b16:	99b2                	add	s3,s3,a2
    2b18:	98ce                	add	a7,a7,s3
    2b1a:	02de07b3          	mul	a5,t3,a3
    2b1e:	01045e93          	srli	t4,s0,0x10
    2b22:	02bf85b3          	mul	a1,t6,a1
    2b26:	97ae                	add	a5,a5,a1
    2b28:	9ebe                	add	t4,t4,a5
    2b2a:	03fe0e33          	mul	t3,t3,t6
    2b2e:	00bef363          	bgeu	t4,a1,2b34 <__muldf3+0x2b6>
    2b32:	9e52                	add	t3,t3,s4
    2b34:	67c1                	lui	a5,0x10
    2b36:	fff78593          	addi	a1,a5,-1 # ffff <_data_lma+0xcdcf>
    2b3a:	00bef633          	and	a2,t4,a1
    2b3e:	8c6d                	and	s0,s0,a1
    2b40:	0642                	slli	a2,a2,0x10
    2b42:	9622                	add	a2,a2,s0
    2b44:	010ede93          	srli	t4,t4,0x10
    2b48:	02d505b3          	mul	a1,a0,a3
    2b4c:	9e76                	add	t3,t3,t4
    2b4e:	02af8533          	mul	a0,t6,a0
    2b52:	0105d413          	srli	s0,a1,0x10
    2b56:	02d386b3          	mul	a3,t2,a3
    2b5a:	96aa                	add	a3,a3,a0
    2b5c:	96a2                	add	a3,a3,s0
    2b5e:	03f38fb3          	mul	t6,t2,t6
    2b62:	00a6f363          	bgeu	a3,a0,2b68 <__muldf3+0x2ea>
    2b66:	9fbe                	add	t6,t6,a5
    2b68:	6541                	lui	a0,0x10
    2b6a:	157d                	addi	a0,a0,-1
    2b6c:	00a6f7b3          	and	a5,a3,a0
    2b70:	07c2                	slli	a5,a5,0x10
    2b72:	8d6d                	and	a0,a0,a1
    2b74:	97aa                	add	a5,a5,a0
    2b76:	005885b3          	add	a1,a7,t0
    2b7a:	0135b9b3          	sltu	s3,a1,s3
    2b7e:	97fa                	add	a5,a5,t5
    2b80:	95b2                	add	a1,a1,a2
    2b82:	01378433          	add	s0,a5,s3
    2b86:	00c5b633          	sltu	a2,a1,a2
    2b8a:	01c40eb3          	add	t4,s0,t3
    2b8e:	00ce8533          	add	a0,t4,a2
    2b92:	01343433          	sltu	s0,s0,s3
    2b96:	01e7b7b3          	sltu	a5,a5,t5
    2b9a:	8fc1                	or	a5,a5,s0
    2b9c:	01cebe33          	sltu	t3,t4,t3
    2ba0:	0106d413          	srli	s0,a3,0x10
    2ba4:	00c53633          	sltu	a2,a0,a2
    2ba8:	943e                	add	s0,s0,a5
    2baa:	00ce6633          	or	a2,t3,a2
    2bae:	00959493          	slli	s1,a1,0x9
    2bb2:	9432                	add	s0,s0,a2
    2bb4:	947e                	add	s0,s0,t6
    2bb6:	0064e4b3          	or	s1,s1,t1
    2bba:	0426                	slli	s0,s0,0x9
    2bbc:	01755693          	srli	a3,a0,0x17
    2bc0:	009034b3          	snez	s1,s1
    2bc4:	81dd                	srli	a1,a1,0x17
    2bc6:	00951793          	slli	a5,a0,0x9
    2bca:	8ccd                	or	s1,s1,a1
    2bcc:	8c55                	or	s0,s0,a3
    2bce:	8cdd                	or	s1,s1,a5
    2bd0:	00741793          	slli	a5,s0,0x7
    2bd4:	0007db63          	bgez	a5,2bea <__muldf3+0x36c>
    2bd8:	0014d793          	srli	a5,s1,0x1
    2bdc:	8885                	andi	s1,s1,1
    2bde:	01f41693          	slli	a3,s0,0x1f
    2be2:	8cdd                	or	s1,s1,a5
    2be4:	8cd5                	or	s1,s1,a3
    2be6:	8005                	srli	s0,s0,0x1
    2be8:	8942                	mv	s2,a6
    2bea:	3ff90793          	addi	a5,s2,1023
    2bee:	08f05763          	blez	a5,2c7c <__muldf3+0x3fe>
    2bf2:	0074f693          	andi	a3,s1,7
    2bf6:	ce81                	beqz	a3,2c0e <__muldf3+0x390>
    2bf8:	00f4f693          	andi	a3,s1,15
    2bfc:	4611                	li	a2,4
    2bfe:	00c68863          	beq	a3,a2,2c0e <__muldf3+0x390>
    2c02:	00448693          	addi	a3,s1,4
    2c06:	0096b4b3          	sltu	s1,a3,s1
    2c0a:	9426                	add	s0,s0,s1
    2c0c:	84b6                	mv	s1,a3
    2c0e:	00741693          	slli	a3,s0,0x7
    2c12:	0006d863          	bgez	a3,2c22 <__muldf3+0x3a4>
    2c16:	ff0007b7          	lui	a5,0xff000
    2c1a:	17fd                	addi	a5,a5,-1
    2c1c:	8c7d                	and	s0,s0,a5
    2c1e:	40090793          	addi	a5,s2,1024
    2c22:	7fe00693          	li	a3,2046
    2c26:	0ef6cd63          	blt	a3,a5,2d20 <__muldf3+0x4a2>
    2c2a:	0034d693          	srli	a3,s1,0x3
    2c2e:	01d41493          	slli	s1,s0,0x1d
    2c32:	0426                	slli	s0,s0,0x9
    2c34:	8cd5                	or	s1,s1,a3
    2c36:	8031                	srli	s0,s0,0xc
    2c38:	7ff7f793          	andi	a5,a5,2047
    2c3c:	bb31                	j	2958 <__muldf3+0xda>
    2c3e:	8532                	mv	a0,a2
    2c40:	c432                	sw	a2,8(sp)
    2c42:	2eed                	jal	303c <__clzsi2>
    2c44:	01550693          	addi	a3,a0,21 # 10015 <_data_lma+0xcde5>
    2c48:	47f1                	li	a5,28
    2c4a:	02050713          	addi	a4,a0,32
    2c4e:	4622                	lw	a2,8(sp)
    2c50:	dcd7d2e3          	bge	a5,a3,2a14 <__muldf3+0x196>
    2c54:	1561                	addi	a0,a0,-8
    2c56:	00a617b3          	sll	a5,a2,a0
    2c5a:	4581                	li	a1,0
    2c5c:	bbc1                	j	2a2c <__muldf3+0x1ae>
    2c5e:	2ef9                	jal	303c <__clzsi2>
    2c60:	01550713          	addi	a4,a0,21
    2c64:	45f1                	li	a1,28
    2c66:	02050793          	addi	a5,a0,32
    2c6a:	4622                	lw	a2,8(sp)
    2c6c:	46b2                	lw	a3,12(sp)
    2c6e:	d4e5d8e3          	bge	a1,a4,29be <__muldf3+0x140>
    2c72:	1561                	addi	a0,a0,-8
    2c74:	00aa1433          	sll	s0,s4,a0
    2c78:	4481                	li	s1,0
    2c7a:	bbb1                	j	29d6 <__muldf3+0x158>
    2c7c:	4685                	li	a3,1
    2c7e:	8e9d                	sub	a3,a3,a5
    2c80:	e7b1                	bnez	a5,2ccc <__muldf3+0x44e>
    2c82:	41e90913          	addi	s2,s2,1054
    2c86:	012497b3          	sll	a5,s1,s2
    2c8a:	00d4d4b3          	srl	s1,s1,a3
    2c8e:	01241933          	sll	s2,s0,s2
    2c92:	00f037b3          	snez	a5,a5
    2c96:	009964b3          	or	s1,s2,s1
    2c9a:	8cdd                	or	s1,s1,a5
    2c9c:	0074f793          	andi	a5,s1,7
    2ca0:	00d456b3          	srl	a3,s0,a3
    2ca4:	cf81                	beqz	a5,2cbc <__muldf3+0x43e>
    2ca6:	00f4f793          	andi	a5,s1,15
    2caa:	4611                	li	a2,4
    2cac:	00c78863          	beq	a5,a2,2cbc <__muldf3+0x43e>
    2cb0:	00448793          	addi	a5,s1,4
    2cb4:	0097b4b3          	sltu	s1,a5,s1
    2cb8:	96a6                	add	a3,a3,s1
    2cba:	84be                	mv	s1,a5
    2cbc:	00869793          	slli	a5,a3,0x8
    2cc0:	0407d863          	bgez	a5,2d10 <__muldf3+0x492>
    2cc4:	4785                	li	a5,1
    2cc6:	4401                	li	s0,0
    2cc8:	4481                	li	s1,0
    2cca:	b179                	j	2958 <__muldf3+0xda>
    2ccc:	03800613          	li	a2,56
    2cd0:	ccd645e3          	blt	a2,a3,299a <__muldf3+0x11c>
    2cd4:	467d                	li	a2,31
    2cd6:	fad656e3          	bge	a2,a3,2c82 <__muldf3+0x404>
    2cda:	5605                	li	a2,-31
    2cdc:	40f607b3          	sub	a5,a2,a5
    2ce0:	02000593          	li	a1,32
    2ce4:	00f45633          	srl	a2,s0,a5
    2ce8:	00b68763          	beq	a3,a1,2cf6 <__muldf3+0x478>
    2cec:	43e90913          	addi	s2,s2,1086
    2cf0:	012417b3          	sll	a5,s0,s2
    2cf4:	8cdd                	or	s1,s1,a5
    2cf6:	009034b3          	snez	s1,s1
    2cfa:	8cd1                	or	s1,s1,a2
    2cfc:	0074f693          	andi	a3,s1,7
    2d00:	4401                	li	s0,0
    2d02:	ca99                	beqz	a3,2d18 <__muldf3+0x49a>
    2d04:	00f4f793          	andi	a5,s1,15
    2d08:	4611                	li	a2,4
    2d0a:	4681                	li	a3,0
    2d0c:	fac792e3          	bne	a5,a2,2cb0 <__muldf3+0x432>
    2d10:	00969413          	slli	s0,a3,0x9
    2d14:	8031                	srli	s0,s0,0xc
    2d16:	06f6                	slli	a3,a3,0x1d
    2d18:	808d                	srli	s1,s1,0x3
    2d1a:	8cd5                	or	s1,s1,a3
    2d1c:	4781                	li	a5,0
    2d1e:	b92d                	j	2958 <__muldf3+0xda>
    2d20:	7ff00793          	li	a5,2047
    2d24:	4401                	li	s0,0
    2d26:	4481                	li	s1,0
    2d28:	b905                	j	2958 <__muldf3+0xda>
    2d2a:	8942                	mv	s2,a6
    2d2c:	bd7d                	j	2bea <__muldf3+0x36c>

00002d2e <__floatsidf>:
    2d2e:	1141                	addi	sp,sp,-16
    2d30:	c606                	sw	ra,12(sp)
    2d32:	c422                	sw	s0,8(sp)
    2d34:	c226                	sw	s1,4(sp)
    2d36:	cd05                	beqz	a0,2d6e <__floatsidf+0x40>
    2d38:	41f55793          	srai	a5,a0,0x1f
    2d3c:	00a7c4b3          	xor	s1,a5,a0
    2d40:	8c9d                	sub	s1,s1,a5
    2d42:	842a                	mv	s0,a0
    2d44:	8526                	mv	a0,s1
    2d46:	2cdd                	jal	303c <__clzsi2>
    2d48:	41e00693          	li	a3,1054
    2d4c:	8e89                	sub	a3,a3,a0
    2d4e:	47a9                	li	a5,10
    2d50:	807d                	srli	s0,s0,0x1f
    2d52:	7ff6f693          	andi	a3,a3,2047
    2d56:	02a7cd63          	blt	a5,a0,2d90 <__floatsidf+0x62>
    2d5a:	472d                	li	a4,11
    2d5c:	8f09                	sub	a4,a4,a0
    2d5e:	00e4d7b3          	srl	a5,s1,a4
    2d62:	0555                	addi	a0,a0,21
    2d64:	07b2                	slli	a5,a5,0xc
    2d66:	00a494b3          	sll	s1,s1,a0
    2d6a:	83b1                	srli	a5,a5,0xc
    2d6c:	a029                	j	2d76 <__floatsidf+0x48>
    2d6e:	4401                	li	s0,0
    2d70:	4681                	li	a3,0
    2d72:	4781                	li	a5,0
    2d74:	4481                	li	s1,0
    2d76:	07b2                	slli	a5,a5,0xc
    2d78:	06d2                	slli	a3,a3,0x14
    2d7a:	83b1                	srli	a5,a5,0xc
    2d7c:	047e                	slli	s0,s0,0x1f
    2d7e:	8fd5                	or	a5,a5,a3
    2d80:	8fc1                	or	a5,a5,s0
    2d82:	40b2                	lw	ra,12(sp)
    2d84:	4422                	lw	s0,8(sp)
    2d86:	8526                	mv	a0,s1
    2d88:	85be                	mv	a1,a5
    2d8a:	4492                	lw	s1,4(sp)
    2d8c:	0141                	addi	sp,sp,16
    2d8e:	8082                	ret
    2d90:	1555                	addi	a0,a0,-11
    2d92:	00a497b3          	sll	a5,s1,a0
    2d96:	07b2                	slli	a5,a5,0xc
    2d98:	83b1                	srli	a5,a5,0xc
    2d9a:	4481                	li	s1,0
    2d9c:	bfe9                	j	2d76 <__floatsidf+0x48>

00002d9e <__floatunsidf>:
    2d9e:	cd15                	beqz	a0,2dda <__floatunsidf+0x3c>
    2da0:	1141                	addi	sp,sp,-16
    2da2:	c422                	sw	s0,8(sp)
    2da4:	c606                	sw	ra,12(sp)
    2da6:	842a                	mv	s0,a0
    2da8:	2c51                	jal	303c <__clzsi2>
    2daa:	41e00693          	li	a3,1054
    2dae:	8e89                	sub	a3,a3,a0
    2db0:	47a9                	li	a5,10
    2db2:	7ff6f693          	andi	a3,a3,2047
    2db6:	02a7dc63          	bge	a5,a0,2dee <__floatunsidf+0x50>
    2dba:	1555                	addi	a0,a0,-11
    2dbc:	00a417b3          	sll	a5,s0,a0
    2dc0:	07b2                	slli	a5,a5,0xc
    2dc2:	83b1                	srli	a5,a5,0xc
    2dc4:	4701                	li	a4,0
    2dc6:	40b2                	lw	ra,12(sp)
    2dc8:	4422                	lw	s0,8(sp)
    2dca:	07b2                	slli	a5,a5,0xc
    2dcc:	06d2                	slli	a3,a3,0x14
    2dce:	83b1                	srli	a5,a5,0xc
    2dd0:	8fd5                	or	a5,a5,a3
    2dd2:	853a                	mv	a0,a4
    2dd4:	85be                	mv	a1,a5
    2dd6:	0141                	addi	sp,sp,16
    2dd8:	8082                	ret
    2dda:	4781                	li	a5,0
    2ddc:	4681                	li	a3,0
    2dde:	07b2                	slli	a5,a5,0xc
    2de0:	06d2                	slli	a3,a3,0x14
    2de2:	83b1                	srli	a5,a5,0xc
    2de4:	4701                	li	a4,0
    2de6:	8fd5                	or	a5,a5,a3
    2de8:	853a                	mv	a0,a4
    2dea:	85be                	mv	a1,a5
    2dec:	8082                	ret
    2dee:	472d                	li	a4,11
    2df0:	8f09                	sub	a4,a4,a0
    2df2:	00e457b3          	srl	a5,s0,a4
    2df6:	07b2                	slli	a5,a5,0xc
    2df8:	01550713          	addi	a4,a0,21
    2dfc:	00e41733          	sll	a4,s0,a4
    2e00:	83b1                	srli	a5,a5,0xc
    2e02:	b7d1                	j	2dc6 <__floatunsidf+0x28>

00002e04 <__floatunsisf>:
    2e04:	1141                	addi	sp,sp,-16
    2e06:	c606                	sw	ra,12(sp)
    2e08:	c422                	sw	s0,8(sp)
    2e0a:	cd15                	beqz	a0,2e46 <__floatunsisf+0x42>
    2e0c:	842a                	mv	s0,a0
    2e0e:	243d                	jal	303c <__clzsi2>
    2e10:	09e00793          	li	a5,158
    2e14:	40a78733          	sub	a4,a5,a0
    2e18:	09600793          	li	a5,150
    2e1c:	04e7c063          	blt	a5,a4,2e5c <__floatunsisf+0x58>
    2e20:	46a1                	li	a3,8
    2e22:	0ff77793          	andi	a5,a4,255
    2e26:	00a6d563          	bge	a3,a0,2e30 <__floatunsisf+0x2c>
    2e2a:	1561                	addi	a0,a0,-8
    2e2c:	00a41433          	sll	s0,s0,a0
    2e30:	0426                	slli	s0,s0,0x9
    2e32:	8025                	srli	s0,s0,0x9
    2e34:	0426                	slli	s0,s0,0x9
    2e36:	00945513          	srli	a0,s0,0x9
    2e3a:	40b2                	lw	ra,12(sp)
    2e3c:	4422                	lw	s0,8(sp)
    2e3e:	07de                	slli	a5,a5,0x17
    2e40:	8d5d                	or	a0,a0,a5
    2e42:	0141                	addi	sp,sp,16
    2e44:	8082                	ret
    2e46:	4401                	li	s0,0
    2e48:	0426                	slli	s0,s0,0x9
    2e4a:	00945513          	srli	a0,s0,0x9
    2e4e:	40b2                	lw	ra,12(sp)
    2e50:	4422                	lw	s0,8(sp)
    2e52:	4781                	li	a5,0
    2e54:	07de                	slli	a5,a5,0x17
    2e56:	8d5d                	or	a0,a0,a5
    2e58:	0141                	addi	sp,sp,16
    2e5a:	8082                	ret
    2e5c:	09900793          	li	a5,153
    2e60:	00e7dd63          	bge	a5,a4,2e7a <__floatunsisf+0x76>
    2e64:	01b50793          	addi	a5,a0,27
    2e68:	4695                	li	a3,5
    2e6a:	00f417b3          	sll	a5,s0,a5
    2e6e:	8e89                	sub	a3,a3,a0
    2e70:	00f037b3          	snez	a5,a5
    2e74:	00d45433          	srl	s0,s0,a3
    2e78:	8c5d                	or	s0,s0,a5
    2e7a:	4795                	li	a5,5
    2e7c:	00a7d663          	bge	a5,a0,2e88 <__floatunsisf+0x84>
    2e80:	ffb50793          	addi	a5,a0,-5
    2e84:	00f41433          	sll	s0,s0,a5
    2e88:	fc0006b7          	lui	a3,0xfc000
    2e8c:	16fd                	addi	a3,a3,-1
    2e8e:	00747793          	andi	a5,s0,7
    2e92:	00d47633          	and	a2,s0,a3
    2e96:	c385                	beqz	a5,2eb6 <__floatunsisf+0xb2>
    2e98:	00f47793          	andi	a5,s0,15
    2e9c:	4591                	li	a1,4
    2e9e:	00b78c63          	beq	a5,a1,2eb6 <__floatunsisf+0xb2>
    2ea2:	0611                	addi	a2,a2,4
    2ea4:	00561793          	slli	a5,a2,0x5
    2ea8:	0007d763          	bgez	a5,2eb6 <__floatunsisf+0xb2>
    2eac:	09f00793          	li	a5,159
    2eb0:	8e75                	and	a2,a2,a3
    2eb2:	40a78733          	sub	a4,a5,a0
    2eb6:	00661413          	slli	s0,a2,0x6
    2eba:	8025                	srli	s0,s0,0x9
    2ebc:	0426                	slli	s0,s0,0x9
    2ebe:	00945513          	srli	a0,s0,0x9
    2ec2:	40b2                	lw	ra,12(sp)
    2ec4:	4422                	lw	s0,8(sp)
    2ec6:	0ff77793          	andi	a5,a4,255
    2eca:	07de                	slli	a5,a5,0x17
    2ecc:	8d5d                	or	a0,a0,a5
    2ece:	0141                	addi	sp,sp,16
    2ed0:	8082                	ret

00002ed2 <__truncdfsf2>:
    2ed2:	0145d693          	srli	a3,a1,0x14
    2ed6:	00c59793          	slli	a5,a1,0xc
    2eda:	7ff6f693          	andi	a3,a3,2047
    2ede:	83b1                	srli	a5,a5,0xc
    2ee0:	00168613          	addi	a2,a3,1 # fc000001 <_eusrstack+0xdbffb001>
    2ee4:	078e                	slli	a5,a5,0x3
    2ee6:	01d55713          	srli	a4,a0,0x1d
    2eea:	7fe67613          	andi	a2,a2,2046
    2eee:	81fd                	srli	a1,a1,0x1f
    2ef0:	8f5d                	or	a4,a4,a5
    2ef2:	00351893          	slli	a7,a0,0x3
    2ef6:	ce35                	beqz	a2,2f72 <__truncdfsf2+0xa0>
    2ef8:	c8068813          	addi	a6,a3,-896
    2efc:	0fe00793          	li	a5,254
    2f00:	0107dd63          	bge	a5,a6,2f1a <__truncdfsf2+0x48>
    2f04:	4781                	li	a5,0
    2f06:	00979513          	slli	a0,a5,0x9
    2f0a:	0ff00693          	li	a3,255
    2f0e:	06de                	slli	a3,a3,0x17
    2f10:	8125                	srli	a0,a0,0x9
    2f12:	05fe                	slli	a1,a1,0x1f
    2f14:	8d55                	or	a0,a0,a3
    2f16:	8d4d                	or	a0,a0,a1
    2f18:	8082                	ret
    2f1a:	0b005563          	blez	a6,2fc4 <__truncdfsf2+0xf2>
    2f1e:	00651793          	slli	a5,a0,0x6
    2f22:	070e                	slli	a4,a4,0x3
    2f24:	00f037b3          	snez	a5,a5
    2f28:	8fd9                	or	a5,a5,a4
    2f2a:	01d8d893          	srli	a7,a7,0x1d
    2f2e:	0117e7b3          	or	a5,a5,a7
    2f32:	0077f713          	andi	a4,a5,7
    2f36:	10070163          	beqz	a4,3038 <__truncdfsf2+0x166>
    2f3a:	00f7f713          	andi	a4,a5,15
    2f3e:	4691                	li	a3,4
    2f40:	00d70363          	beq	a4,a3,2f46 <__truncdfsf2+0x74>
    2f44:	0791                	addi	a5,a5,4
    2f46:	04000737          	lui	a4,0x4000
    2f4a:	8f7d                	and	a4,a4,a5
    2f4c:	c775                	beqz	a4,3038 <__truncdfsf2+0x166>
    2f4e:	00180713          	addi	a4,a6,1
    2f52:	0ff00613          	li	a2,255
    2f56:	0ff77693          	andi	a3,a4,255
    2f5a:	fac705e3          	beq	a4,a2,2f04 <__truncdfsf2+0x32>
    2f5e:	079a                	slli	a5,a5,0x6
    2f60:	83a5                	srli	a5,a5,0x9
    2f62:	00979513          	slli	a0,a5,0x9
    2f66:	06de                	slli	a3,a3,0x17
    2f68:	8125                	srli	a0,a0,0x9
    2f6a:	05fe                	slli	a1,a1,0x1f
    2f6c:	8d55                	or	a0,a0,a3
    2f6e:	8d4d                	or	a0,a0,a1
    2f70:	8082                	ret
    2f72:	011767b3          	or	a5,a4,a7
    2f76:	ee99                	bnez	a3,2f94 <__truncdfsf2+0xc2>
    2f78:	cf85                	beqz	a5,2fb0 <__truncdfsf2+0xde>
    2f7a:	4795                	li	a5,5
    2f7c:	079a                	slli	a5,a5,0x6
    2f7e:	83a5                	srli	a5,a5,0x9
    2f80:	00979513          	slli	a0,a5,0x9
    2f84:	0ff6f693          	andi	a3,a3,255
    2f88:	06de                	slli	a3,a3,0x17
    2f8a:	8125                	srli	a0,a0,0x9
    2f8c:	05fe                	slli	a1,a1,0x1f
    2f8e:	8d55                	or	a0,a0,a3
    2f90:	8d4d                	or	a0,a0,a1
    2f92:	8082                	ret
    2f94:	dba5                	beqz	a5,2f04 <__truncdfsf2+0x32>
    2f96:	004007b7          	lui	a5,0x400
    2f9a:	00979513          	slli	a0,a5,0x9
    2f9e:	0ff00693          	li	a3,255
    2fa2:	06de                	slli	a3,a3,0x17
    2fa4:	4581                	li	a1,0
    2fa6:	8125                	srli	a0,a0,0x9
    2fa8:	05fe                	slli	a1,a1,0x1f
    2faa:	8d55                	or	a0,a0,a3
    2fac:	8d4d                	or	a0,a0,a1
    2fae:	8082                	ret
    2fb0:	4781                	li	a5,0
    2fb2:	00979513          	slli	a0,a5,0x9
    2fb6:	4681                	li	a3,0
    2fb8:	06de                	slli	a3,a3,0x17
    2fba:	8125                	srli	a0,a0,0x9
    2fbc:	05fe                	slli	a1,a1,0x1f
    2fbe:	8d55                	or	a0,a0,a3
    2fc0:	8d4d                	or	a0,a0,a1
    2fc2:	8082                	ret
    2fc4:	57a5                	li	a5,-23
    2fc6:	04f84863          	blt	a6,a5,3016 <__truncdfsf2+0x144>
    2fca:	47f9                	li	a5,30
    2fcc:	00800637          	lui	a2,0x800
    2fd0:	410787b3          	sub	a5,a5,a6
    2fd4:	457d                	li	a0,31
    2fd6:	8e59                	or	a2,a2,a4
    2fd8:	04f55163          	bge	a0,a5,301a <__truncdfsf2+0x148>
    2fdc:	5779                	li	a4,-2
    2fde:	41070733          	sub	a4,a4,a6
    2fe2:	02000513          	li	a0,32
    2fe6:	00e65733          	srl	a4,a2,a4
    2fea:	00a78863          	beq	a5,a0,2ffa <__truncdfsf2+0x128>
    2fee:	ca268693          	addi	a3,a3,-862
    2ff2:	00d616b3          	sll	a3,a2,a3
    2ff6:	00d8e8b3          	or	a7,a7,a3
    2ffa:	011037b3          	snez	a5,a7
    2ffe:	8fd9                	or	a5,a5,a4
    3000:	0077f713          	andi	a4,a5,7
    3004:	4801                	li	a6,0
    3006:	fb15                	bnez	a4,2f3a <__truncdfsf2+0x68>
    3008:	00579713          	slli	a4,a5,0x5
    300c:	4685                	li	a3,1
    300e:	f40748e3          	bltz	a4,2f5e <__truncdfsf2+0x8c>
    3012:	4681                	li	a3,0
    3014:	b7a5                	j	2f7c <__truncdfsf2+0xaa>
    3016:	4681                	li	a3,0
    3018:	b78d                	j	2f7a <__truncdfsf2+0xa8>
    301a:	c8268693          	addi	a3,a3,-894
    301e:	00d89733          	sll	a4,a7,a3
    3022:	00e03733          	snez	a4,a4
    3026:	00d616b3          	sll	a3,a2,a3
    302a:	00f8d8b3          	srl	a7,a7,a5
    302e:	00d767b3          	or	a5,a4,a3
    3032:	00f8e7b3          	or	a5,a7,a5
    3036:	b7e9                	j	3000 <__truncdfsf2+0x12e>
    3038:	86c2                	mv	a3,a6
    303a:	b789                	j	2f7c <__truncdfsf2+0xaa>

0000303c <__clzsi2>:
    303c:	67c1                	lui	a5,0x10
    303e:	02f57c63          	bgeu	a0,a5,3076 <__clzsi2+0x3a>
    3042:	0ff00793          	li	a5,255
    3046:	02000713          	li	a4,32
    304a:	00a7eb63          	bltu	a5,a0,3060 <__clzsi2+0x24>
    304e:	00000797          	auipc	a5,0x0
    3052:	0e278793          	addi	a5,a5,226 # 3130 <__clz_tab>
    3056:	97aa                	add	a5,a5,a0
    3058:	2388                	lbu	a0,0(a5)
    305a:	40a70533          	sub	a0,a4,a0
    305e:	8082                	ret
    3060:	8121                	srli	a0,a0,0x8
    3062:	00000797          	auipc	a5,0x0
    3066:	0ce78793          	addi	a5,a5,206 # 3130 <__clz_tab>
    306a:	97aa                	add	a5,a5,a0
    306c:	2388                	lbu	a0,0(a5)
    306e:	4761                	li	a4,24
    3070:	40a70533          	sub	a0,a4,a0
    3074:	8082                	ret
    3076:	010007b7          	lui	a5,0x1000
    307a:	00f56d63          	bltu	a0,a5,3094 <__clzsi2+0x58>
    307e:	8161                	srli	a0,a0,0x18
    3080:	00000797          	auipc	a5,0x0
    3084:	0b078793          	addi	a5,a5,176 # 3130 <__clz_tab>
    3088:	97aa                	add	a5,a5,a0
    308a:	2388                	lbu	a0,0(a5)
    308c:	4721                	li	a4,8
    308e:	40a70533          	sub	a0,a4,a0
    3092:	8082                	ret
    3094:	8141                	srli	a0,a0,0x10
    3096:	00000797          	auipc	a5,0x0
    309a:	09a78793          	addi	a5,a5,154 # 3130 <__clz_tab>
    309e:	97aa                	add	a5,a5,a0
    30a0:	2388                	lbu	a0,0(a5)
    30a2:	4741                	li	a4,16
    30a4:	40a70533          	sub	a0,a4,a0
    30a8:	8082                	ret
    30aa:	0000                	unimp
    30ac:	0000                	unimp
    30ae:	0000                	unimp
    30b0:	47ae147b          	0x47ae147b
    30b4:	7ae1                	lui	s5,0xffff8
    30b6:	3f84                	lbu	s1,25(a5)
    30b8:	0d76                	slli	s10,s10,0x1d
    30ba:	0000                	unimp
    30bc:	0d84                	addi	s1,sp,720
    30be:	0000                	unimp
    30c0:	0d96                	slli	s11,s11,0x5
    30c2:	0000                	unimp
    30c4:	0d96                	slli	s11,s11,0x5
    30c6:	0000                	unimp
    30c8:	0d96                	slli	s11,s11,0x5
    30ca:	0000                	unimp
    30cc:	0d96                	slli	s11,s11,0x5
    30ce:	0000                	unimp
    30d0:	0d96                	slli	s11,s11,0x5
    30d2:	0000                	unimp
    30d4:	0dca                	slli	s11,s11,0x12
    30d6:	0000                	unimp
    30d8:	0fac                	addi	a1,sp,984
    30da:	0000                	unimp
    30dc:	0fcc                	addi	a1,sp,980
    30de:	0000                	unimp
    30e0:	0fcc                	addi	a1,sp,980
    30e2:	0000                	unimp
    30e4:	0fcc                	addi	a1,sp,980
    30e6:	0000                	unimp
    30e8:	0fcc                	addi	a1,sp,980
    30ea:	0000                	unimp
    30ec:	0fcc                	addi	a1,sp,980
    30ee:	0000                	unimp
    30f0:	f99a                	fsw	ft6,240(sp)
    30f2:	ffff                	0xffff
    30f4:	f890                	fsw	fa2,48(s1)
    30f6:	ffff                	0xffff
    30f8:	f890                	fsw	fa2,48(s1)
    30fa:	ffff                	0xffff
    30fc:	f88e                	fsw	ft3,112(sp)
    30fe:	ffff                	0xffff
    3100:	f896                	fsw	ft5,112(sp)
    3102:	ffff                	0xffff
    3104:	f896                	fsw	ft5,112(sp)
    3106:	ffff                	0xffff
    3108:	f85c                	fsw	fa5,52(s0)
    310a:	ffff                	0xffff
    310c:	f88e                	fsw	ft3,112(sp)
    310e:	ffff                	0xffff
    3110:	f896                	fsw	ft5,112(sp)
    3112:	ffff                	0xffff
    3114:	f85c                	fsw	fa5,52(s0)
    3116:	ffff                	0xffff
    3118:	f896                	fsw	ft5,112(sp)
    311a:	ffff                	0xffff
    311c:	f88e                	fsw	ft3,112(sp)
    311e:	ffff                	0xffff
    3120:	f986                	fsw	ft1,240(sp)
    3122:	ffff                	0xffff
    3124:	f986                	fsw	ft1,240(sp)
    3126:	ffff                	0xffff
    3128:	f986                	fsw	ft1,240(sp)
    312a:	ffff                	0xffff
    312c:	f85c                	fsw	fa5,52(s0)
    312e:	ffff                	0xffff

00003130 <__clz_tab>:
    3130:	0100 0202 0303 0303 0404 0404 0404 0404     ................
    3140:	0505 0505 0505 0505 0505 0505 0505 0505     ................
    3150:	0606 0606 0606 0606 0606 0606 0606 0606     ................
    3160:	0606 0606 0606 0606 0606 0606 0606 0606     ................
    3170:	0707 0707 0707 0707 0707 0707 0707 0707     ................
    3180:	0707 0707 0707 0707 0707 0707 0707 0707     ................
    3190:	0707 0707 0707 0707 0707 0707 0707 0707     ................
    31a0:	0707 0707 0707 0707 0707 0707 0707 0707     ................
    31b0:	0808 0808 0808 0808 0808 0808 0808 0808     ................
    31c0:	0808 0808 0808 0808 0808 0808 0808 0808     ................
    31d0:	0808 0808 0808 0808 0808 0808 0808 0808     ................
    31e0:	0808 0808 0808 0808 0808 0808 0808 0808     ................
    31f0:	0808 0808 0808 0808 0808 0808 0808 0808     ................
    3200:	0808 0808 0808 0808 0808 0808 0808 0808     ................
    3210:	0808 0808 0808 0808 0808 0808 0808 0808     ................
    3220:	0808 0808 0808 0808 0808 0808 0808 0808     ................
